
bin/detect_avx:     file format elf64-x86-64


Disassembly of section .init:

0000000000401000 <_init>:
  401000:	f3 0f 1e fa          	endbr64 
  401004:	48 83 ec 08          	sub    $0x8,%rsp
  401008:	48 8b 05 e9 3f 00 00 	mov    0x3fe9(%rip),%rax        # 404ff8 <__gmon_start__@Base>
  40100f:	48 85 c0             	test   %rax,%rax
  401012:	74 02                	je     401016 <_init+0x16>
  401014:	ff d0                	call   *%rax
  401016:	48 83 c4 08          	add    $0x8,%rsp
  40101a:	c3                   	ret    

Disassembly of section .plt:

0000000000401020 <printf@plt-0x10>:
  401020:	ff 35 e2 3f 00 00    	push   0x3fe2(%rip)        # 405008 <_GLOBAL_OFFSET_TABLE_+0x8>
  401026:	ff 25 e4 3f 00 00    	jmp    *0x3fe4(%rip)        # 405010 <_GLOBAL_OFFSET_TABLE_+0x10>
  40102c:	0f 1f 40 00          	nopl   0x0(%rax)

0000000000401030 <printf@plt>:
  401030:	ff 25 e2 3f 00 00    	jmp    *0x3fe2(%rip)        # 405018 <printf@GLIBC_2.2.5>
  401036:	68 00 00 00 00       	push   $0x0
  40103b:	e9 e0 ff ff ff       	jmp    401020 <_init+0x20>

0000000000401040 <putc@plt>:
  401040:	ff 25 da 3f 00 00    	jmp    *0x3fda(%rip)        # 405020 <putc@GLIBC_2.2.5>
  401046:	68 01 00 00 00       	push   $0x1
  40104b:	e9 d0 ff ff ff       	jmp    401020 <_init+0x20>

Disassembly of section .text:

0000000000401050 <main>:
https://www.root.cz/clanky/rozsireni-instrukcni-sady-f16c-fma-a-avx-512-na-platforme-x86-64/
*/

#include <stdio.h>

int main(void) {
  401050:	55                   	push   %rbp
    printf("Extension SSE    is %ssupported\n", __builtin_cpu_supports("sse") ? "" : "un");
  401051:	bd 12 30 40 00       	mov    $0x403012,%ebp
  401056:	bf 18 30 40 00       	mov    $0x403018,%edi
int main(void) {
  40105b:	53                   	push   %rbx
    printf("Extension SSE    is %ssupported\n", __builtin_cpu_supports("sse") ? "" : "un");
  40105c:	48 89 ee             	mov    %rbp,%rsi
  40105f:	bb 10 30 40 00       	mov    $0x403010,%ebx
int main(void) {
  401064:	48 83 ec 08          	sub    $0x8,%rsp
    printf("Extension SSE    is %ssupported\n", __builtin_cpu_supports("sse") ? "" : "un");
  401068:	f6 05 ed 3f 00 00 08 	testb  $0x8,0x3fed(%rip)        # 40505c <__cpu_model+0xc>
  40106f:	48 0f 44 f3          	cmove  %rbx,%rsi
  401073:	31 c0                	xor    %eax,%eax
  401075:	e8 b6 ff ff ff       	call   401030 <printf@plt>
    printf("Extension SSE2   is %ssupported\n", __builtin_cpu_supports("sse2") ? "" : "un");
  40107a:	f6 05 db 3f 00 00 10 	testb  $0x10,0x3fdb(%rip)        # 40505c <__cpu_model+0xc>
  401081:	48 89 ee             	mov    %rbp,%rsi
  401084:	bf 40 30 40 00       	mov    $0x403040,%edi
  401089:	48 0f 44 f3          	cmove  %rbx,%rsi
  40108d:	31 c0                	xor    %eax,%eax
  40108f:	e8 9c ff ff ff       	call   401030 <printf@plt>
    printf("Extension SSE3   is %ssupported\n", __builtin_cpu_supports("sse3") ? "" : "un");
  401094:	f6 05 c1 3f 00 00 20 	testb  $0x20,0x3fc1(%rip)        # 40505c <__cpu_model+0xc>
  40109b:	48 89 ee             	mov    %rbp,%rsi
  40109e:	bf 68 30 40 00       	mov    $0x403068,%edi
  4010a3:	48 0f 44 f3          	cmove  %rbx,%rsi
  4010a7:	31 c0                	xor    %eax,%eax
  4010a9:	e8 82 ff ff ff       	call   401030 <printf@plt>
    printf("Extension SSE4.1 is %ssupported\n", __builtin_cpu_supports("sse4.1") ? "" : "un");
  4010ae:	f6 05 a7 3f 00 00 80 	testb  $0x80,0x3fa7(%rip)        # 40505c <__cpu_model+0xc>
  4010b5:	48 89 ee             	mov    %rbp,%rsi
  4010b8:	bf 90 30 40 00       	mov    $0x403090,%edi
  4010bd:	48 0f 44 f3          	cmove  %rbx,%rsi
  4010c1:	31 c0                	xor    %eax,%eax
  4010c3:	e8 68 ff ff ff       	call   401030 <printf@plt>
    printf("Extension SSE4.2 is %ssupported\n", __builtin_cpu_supports("sse4.2") ? "" : "un");
  4010c8:	f6 05 8e 3f 00 00 01 	testb  $0x1,0x3f8e(%rip)        # 40505d <__cpu_model+0xd>
  4010cf:	48 89 ee             	mov    %rbp,%rsi
  4010d2:	bf b8 30 40 00       	mov    $0x4030b8,%edi
  4010d7:	48 0f 44 f3          	cmove  %rbx,%rsi
  4010db:	31 c0                	xor    %eax,%eax
  4010dd:	e8 4e ff ff ff       	call   401030 <printf@plt>
    printf("Extension AVX    is %ssupported\n", __builtin_cpu_supports("avx") ? "" : "un");
  4010e2:	f6 05 74 3f 00 00 02 	testb  $0x2,0x3f74(%rip)        # 40505d <__cpu_model+0xd>
  4010e9:	48 89 ee             	mov    %rbp,%rsi
  4010ec:	bf e0 30 40 00       	mov    $0x4030e0,%edi
  4010f1:	48 0f 44 f3          	cmove  %rbx,%rsi
  4010f5:	31 c0                	xor    %eax,%eax
  4010f7:	e8 34 ff ff ff       	call   401030 <printf@plt>
    printf("Extension AVX2   is %ssupported\n", __builtin_cpu_supports("avx2") ? "" : "un");
  4010fc:	f6 05 5a 3f 00 00 04 	testb  $0x4,0x3f5a(%rip)        # 40505d <__cpu_model+0xd>
  401103:	48 89 ee             	mov    %rbp,%rsi
  401106:	bf 08 31 40 00       	mov    $0x403108,%edi
  40110b:	48 0f 44 f3          	cmove  %rbx,%rsi
  40110f:	31 c0                	xor    %eax,%eax
  401111:	e8 1a ff ff ff       	call   401030 <printf@plt>
    printf("Extension FMA    is %ssupported\n", __builtin_cpu_supports("fma") ? "" : "un");
  401116:	f6 05 40 3f 00 00 40 	testb  $0x40,0x3f40(%rip)        # 40505d <__cpu_model+0xd>
  40111d:	48 89 ee             	mov    %rbp,%rsi
  401120:	bf 30 31 40 00       	mov    $0x403130,%edi
  401125:	48 0f 44 f3          	cmove  %rbx,%rsi
  401129:	31 c0                	xor    %eax,%eax
  40112b:	e8 00 ff ff ff       	call   401030 <printf@plt>
    printf("Extension FMA4   is %ssupported\n", __builtin_cpu_supports("fma4") ? "" : "un");
  401130:	f6 05 26 3f 00 00 10 	testb  $0x10,0x3f26(%rip)        # 40505d <__cpu_model+0xd>
  401137:	48 89 ee             	mov    %rbp,%rsi
  40113a:	bf 58 31 40 00       	mov    $0x403158,%edi
  40113f:	48 0f 44 f3          	cmove  %rbx,%rsi
  401143:	31 c0                	xor    %eax,%eax
  401145:	e8 e6 fe ff ff       	call   401030 <printf@plt>

/* Write a character to stdout.  */
__STDIO_INLINE int
putchar (int __c)
{
  return putc (__c, stdout);
  40114a:	48 8b 35 df 3e 00 00 	mov    0x3edf(%rip),%rsi        # 405030 <stdout@@GLIBC_2.2.5>
  401151:	bf 0a 00 00 00       	mov    $0xa,%edi
  401156:	e8 e5 fe ff ff       	call   401040 <putc@plt>
    putchar('\n');

    printf("Extension AVX512F         is %ssupported\n", __builtin_cpu_supports("avx512f") ? "" : "un");
  40115b:	f6 05 fb 3e 00 00 80 	testb  $0x80,0x3efb(%rip)        # 40505d <__cpu_model+0xd>
  401162:	48 89 ee             	mov    %rbp,%rsi
  401165:	bf 80 31 40 00       	mov    $0x403180,%edi
  40116a:	48 0f 44 f3          	cmove  %rbx,%rsi
  40116e:	31 c0                	xor    %eax,%eax
  401170:	e8 bb fe ff ff       	call   401030 <printf@plt>
    printf("Extension AVX512VL        is %ssupported\n", __builtin_cpu_supports("avx512vl") ? "" : "un");
  401175:	f6 05 e2 3e 00 00 10 	testb  $0x10,0x3ee2(%rip)        # 40505e <__cpu_model+0xe>
  40117c:	48 89 ee             	mov    %rbp,%rsi
  40117f:	bf b0 31 40 00       	mov    $0x4031b0,%edi
  401184:	48 0f 44 f3          	cmove  %rbx,%rsi
  401188:	31 c0                	xor    %eax,%eax
  40118a:	e8 a1 fe ff ff       	call   401030 <printf@plt>
    printf("Extension AVX512BW        is %ssupported\n", __builtin_cpu_supports("avx512bw") ? "" : "un");
  40118f:	f6 05 c8 3e 00 00 20 	testb  $0x20,0x3ec8(%rip)        # 40505e <__cpu_model+0xe>
  401196:	48 89 ee             	mov    %rbp,%rsi
  401199:	bf e0 31 40 00       	mov    $0x4031e0,%edi
  40119e:	48 0f 44 f3          	cmove  %rbx,%rsi
  4011a2:	31 c0                	xor    %eax,%eax
  4011a4:	e8 87 fe ff ff       	call   401030 <printf@plt>
    printf("Extension AVX512DQ        is %ssupported\n", __builtin_cpu_supports("avx512dq") ? "" : "un");
  4011a9:	f6 05 ae 3e 00 00 40 	testb  $0x40,0x3eae(%rip)        # 40505e <__cpu_model+0xe>
  4011b0:	48 89 ee             	mov    %rbp,%rsi
  4011b3:	bf 10 32 40 00       	mov    $0x403210,%edi
  4011b8:	48 0f 44 f3          	cmove  %rbx,%rsi
  4011bc:	31 c0                	xor    %eax,%eax
  4011be:	e8 6d fe ff ff       	call   401030 <printf@plt>
    printf("Extension AVX512CD        is %ssupported\n", __builtin_cpu_supports("avx512cd") ? "" : "un");
  4011c3:	f6 05 94 3e 00 00 80 	testb  $0x80,0x3e94(%rip)        # 40505e <__cpu_model+0xe>
  4011ca:	48 89 ee             	mov    %rbp,%rsi
  4011cd:	bf 40 32 40 00       	mov    $0x403240,%edi
  4011d2:	48 0f 44 f3          	cmove  %rbx,%rsi
  4011d6:	31 c0                	xor    %eax,%eax
  4011d8:	e8 53 fe ff ff       	call   401030 <printf@plt>
    printf("Extension AVX512ER        is %ssupported\n", __builtin_cpu_supports("avx512er") ? "" : "un");
  4011dd:	f6 05 7b 3e 00 00 01 	testb  $0x1,0x3e7b(%rip)        # 40505f <__cpu_model+0xf>
  4011e4:	48 89 ee             	mov    %rbp,%rsi
  4011e7:	bf 70 32 40 00       	mov    $0x403270,%edi
  4011ec:	48 0f 44 f3          	cmove  %rbx,%rsi
  4011f0:	31 c0                	xor    %eax,%eax
  4011f2:	e8 39 fe ff ff       	call   401030 <printf@plt>
    printf("Extension AVX512PF        is %ssupported\n", __builtin_cpu_supports("avx512pf") ? "" : "un");
  4011f7:	f6 05 61 3e 00 00 02 	testb  $0x2,0x3e61(%rip)        # 40505f <__cpu_model+0xf>
  4011fe:	48 89 ee             	mov    %rbp,%rsi
  401201:	bf a0 32 40 00       	mov    $0x4032a0,%edi
  401206:	48 0f 44 f3          	cmove  %rbx,%rsi
  40120a:	31 c0                	xor    %eax,%eax
  40120c:	e8 1f fe ff ff       	call   401030 <printf@plt>
    printf("Extension AVX512VBMI      is %ssupported\n", __builtin_cpu_supports("avx512vbmi") ? "" : "un");
  401211:	f6 05 47 3e 00 00 04 	testb  $0x4,0x3e47(%rip)        # 40505f <__cpu_model+0xf>
  401218:	48 89 ee             	mov    %rbp,%rsi
  40121b:	bf d0 32 40 00       	mov    $0x4032d0,%edi
  401220:	48 0f 44 f3          	cmove  %rbx,%rsi
  401224:	31 c0                	xor    %eax,%eax
  401226:	e8 05 fe ff ff       	call   401030 <printf@plt>
    printf("Extension AVX512IFMA      is %ssupported\n", __builtin_cpu_supports("avx512ifma") ? "" : "un");
  40122b:	f6 05 2d 3e 00 00 08 	testb  $0x8,0x3e2d(%rip)        # 40505f <__cpu_model+0xf>
  401232:	48 89 ee             	mov    %rbp,%rsi
  401235:	bf 00 33 40 00       	mov    $0x403300,%edi
  40123a:	48 0f 44 f3          	cmove  %rbx,%rsi
  40123e:	31 c0                	xor    %eax,%eax
  401240:	e8 eb fd ff ff       	call   401030 <printf@plt>
    printf("Extension AVX5124VNNIW    is %ssupported\n", __builtin_cpu_supports("avx5124vnniw") ? "" : "un");
  401245:	f6 05 13 3e 00 00 10 	testb  $0x10,0x3e13(%rip)        # 40505f <__cpu_model+0xf>
  40124c:	48 89 ee             	mov    %rbp,%rsi
  40124f:	bf 30 33 40 00       	mov    $0x403330,%edi
  401254:	48 0f 44 f3          	cmove  %rbx,%rsi
  401258:	31 c0                	xor    %eax,%eax
  40125a:	e8 d1 fd ff ff       	call   401030 <printf@plt>
    printf("Extension AVX5124FMAPS    is %ssupported\n", __builtin_cpu_supports("avx5124fmaps") ? "" : "un");
  40125f:	f6 05 f9 3d 00 00 20 	testb  $0x20,0x3df9(%rip)        # 40505f <__cpu_model+0xf>
  401266:	48 89 ee             	mov    %rbp,%rsi
  401269:	bf 60 33 40 00       	mov    $0x403360,%edi
  40126e:	48 0f 44 f3          	cmove  %rbx,%rsi
  401272:	31 c0                	xor    %eax,%eax
  401274:	e8 b7 fd ff ff       	call   401030 <printf@plt>
    printf("Extension AVX512VPOPCNTDQ is %ssupported\n", __builtin_cpu_supports("avx512vpopcntdq") ? "" : "un");
  401279:	f6 05 df 3d 00 00 40 	testb  $0x40,0x3ddf(%rip)        # 40505f <__cpu_model+0xf>
  401280:	48 89 ee             	mov    %rbp,%rsi
  401283:	bf 90 33 40 00       	mov    $0x403390,%edi
  401288:	48 0f 44 f3          	cmove  %rbx,%rsi
  40128c:	31 c0                	xor    %eax,%eax
  40128e:	e8 9d fd ff ff       	call   401030 <printf@plt>
    printf("Extension AVX512VBMI2     is %ssupported\n", __builtin_cpu_supports("avx512vbmi2") ? "" : "un");
  401293:	8b 05 c3 3d 00 00    	mov    0x3dc3(%rip),%eax        # 40505c <__cpu_model+0xc>
  401299:	48 89 ee             	mov    %rbp,%rsi
  40129c:	bf c0 33 40 00       	mov    $0x4033c0,%edi
  4012a1:	85 c0                	test   %eax,%eax
  4012a3:	48 0f 49 f3          	cmovns %rbx,%rsi
  4012a7:	31 c0                	xor    %eax,%eax
  4012a9:	e8 82 fd ff ff       	call   401030 <printf@plt>
    printf("Extension AVX512BITALG    is %ssupported\n", __builtin_cpu_supports("avx512bitalg") ? "" : "un");
  4012ae:	f6 05 8b 3d 00 00 08 	testb  $0x8,0x3d8b(%rip)        # 405040 <__cpu_features2>
  4012b5:	48 89 ee             	mov    %rbp,%rsi
  4012b8:	bf f0 33 40 00       	mov    $0x4033f0,%edi
  4012bd:	48 0f 44 f3          	cmove  %rbx,%rsi
  4012c1:	31 c0                	xor    %eax,%eax
  4012c3:	e8 68 fd ff ff       	call   401030 <printf@plt>
    return 0;
}
  4012c8:	48 83 c4 08          	add    $0x8,%rsp
  4012cc:	31 c0                	xor    %eax,%eax
  4012ce:	5b                   	pop    %rbx
  4012cf:	5d                   	pop    %rbp
  4012d0:	c3                   	ret    
  4012d1:	66 2e 0f 1f 84 00 00 	cs nopw 0x0(%rax,%rax,1)
  4012d8:	00 00 00 
  4012db:	0f 1f 44 00 00       	nopl   0x0(%rax,%rax,1)

00000000004012e0 <has_cpu_feature.part.0.constprop.0>:
  4012e0:	89 f9                	mov    %edi,%ecx
  4012e2:	b8 01 00 00 00       	mov    $0x1,%eax
  4012e7:	48 8d 15 52 3d 00 00 	lea    0x3d52(%rip),%rdx        # 405040 <__cpu_features2>
  4012ee:	d3 e0                	shl    %cl,%eax
  4012f0:	83 ff 3f             	cmp    $0x3f,%edi
  4012f3:	0f 97 c1             	seta   %cl
  4012f6:	0f b6 c9             	movzbl %cl,%ecx
  4012f9:	23 04 8a             	and    (%rdx,%rcx,4),%eax
  4012fc:	c3                   	ret    
  4012fd:	0f 1f 00             	nopl   (%rax)

0000000000401300 <get_available_features.constprop.0>:
  401300:	41 55                	push   %r13
  401302:	49 89 fa             	mov    %rdi,%r10
  401305:	41 89 f0             	mov    %esi,%r8d
  401308:	41 89 d1             	mov    %edx,%r9d
  40130b:	41 54                	push   %r12
  40130d:	55                   	push   %rbp
  40130e:	53                   	push   %rbx
  40130f:	89 f3                	mov    %esi,%ebx
  401311:	48 83 ec 08          	sub    $0x8,%rsp
  401315:	8b 6f 08             	mov    0x8(%rdi),%ebp
  401318:	81 e3 00 00 00 08    	and    $0x8000000,%ebx
  40131e:	74 2c                	je     40134c <get_available_features.constprop.0+0x4c>
  401320:	31 c9                	xor    %ecx,%ecx
  401322:	0f 01 d0             	xgetbv 
  401325:	89 c2                	mov    %eax,%edx
  401327:	83 e2 06             	and    $0x6,%edx
  40132a:	83 fa 06             	cmp    $0x6,%edx
  40132d:	0f 84 7a 06 00 00    	je     4019ad <get_available_features.constprop.0+0x6ad>
  401333:	45 31 e4             	xor    %r12d,%r12d
  401336:	45 31 db             	xor    %r11d,%r11d
  401339:	25 00 00 06 00       	and    $0x60000,%eax
  40133e:	45 31 ed             	xor    %r13d,%r13d
  401341:	3d 00 00 06 00       	cmp    $0x60000,%eax
  401346:	41 0f 94 c5          	sete   %r13b
  40134a:	eb 09                	jmp    401355 <get_available_features.constprop.0+0x55>
  40134c:	45 31 ed             	xor    %r13d,%r13d
  40134f:	45 31 e4             	xor    %r12d,%r12d
  401352:	45 31 db             	xor    %r11d,%r11d
  401355:	41 f7 c1 00 80 00 00 	test   $0x8000,%r9d
  40135c:	0f 85 5e 05 00 00    	jne    4018c0 <get_available_features.constprop.0+0x5c0>
  401362:	41 f7 c1 00 00 80 00 	test   $0x800000,%r9d
  401369:	0f 85 45 05 00 00    	jne    4018b4 <get_available_features.constprop.0+0x5b4>
  40136f:	41 f7 c1 00 00 00 02 	test   $0x2000000,%r9d
  401376:	0f 85 7a 05 00 00    	jne    4018f6 <get_available_features.constprop.0+0x5f6>
  40137c:	41 f7 c1 00 00 00 04 	test   $0x4000000,%r9d
  401383:	0f 85 61 05 00 00    	jne    4018ea <get_available_features.constprop.0+0x5ea>
  401389:	41 f7 c1 00 01 00 00 	test   $0x100,%r9d
  401390:	0f 85 45 05 00 00    	jne    4018db <get_available_features.constprop.0+0x5db>
  401396:	41 81 e1 00 00 00 01 	and    $0x1000000,%r9d
  40139d:	0f 85 29 05 00 00    	jne    4018cc <get_available_features.constprop.0+0x5cc>
  4013a3:	41 f7 c0 00 00 80 00 	test   $0x800000,%r8d
  4013aa:	0f 85 f1 05 00 00    	jne    4019a1 <get_available_features.constprop.0+0x6a1>
  4013b0:	45 89 c1             	mov    %r8d,%r9d
  4013b3:	41 81 e1 00 00 00 02 	and    $0x2000000,%r9d
  4013ba:	0f 85 d2 05 00 00    	jne    401992 <get_available_features.constprop.0+0x692>
  4013c0:	41 f6 c0 02          	test   $0x2,%r8b
  4013c4:	0f 85 b9 05 00 00    	jne    401983 <get_available_features.constprop.0+0x683>
  4013ca:	41 f6 c0 01          	test   $0x1,%r8b
  4013ce:	0f 85 a3 05 00 00    	jne    401977 <get_available_features.constprop.0+0x677>
  4013d4:	41 f7 c0 00 02 00 00 	test   $0x200,%r8d
  4013db:	0f 85 8a 05 00 00    	jne    40196b <get_available_features.constprop.0+0x66b>
  4013e1:	41 f7 c0 00 00 08 00 	test   $0x80000,%r8d
  4013e8:	0f 85 6e 05 00 00    	jne    40195c <get_available_features.constprop.0+0x65c>
  4013ee:	41 f7 c0 00 00 10 00 	test   $0x100000,%r8d
  4013f5:	0f 85 52 05 00 00    	jne    40194d <get_available_features.constprop.0+0x64d>
  4013fb:	85 db                	test   %ebx,%ebx
  4013fd:	0f 85 3b 05 00 00    	jne    40193e <get_available_features.constprop.0+0x63e>
  401403:	41 f7 c0 00 20 00 00 	test   $0x2000,%r8d
  40140a:	0f 85 1f 05 00 00    	jne    40192f <get_available_features.constprop.0+0x62f>
  401410:	41 f7 c0 00 00 40 00 	test   $0x400000,%r8d
  401417:	0f 85 03 05 00 00    	jne    401920 <get_available_features.constprop.0+0x620>
  40141d:	45 85 c9             	test   %r9d,%r9d
  401420:	0f 85 eb 04 00 00    	jne    401911 <get_available_features.constprop.0+0x611>
  401426:	41 f7 c0 00 00 00 40 	test   $0x40000000,%r8d
  40142d:	0f 85 cf 04 00 00    	jne    401902 <get_available_features.constprop.0+0x602>
  401433:	41 f7 c0 00 00 00 04 	test   $0x4000000,%r8d
  40143a:	0f 85 65 04 00 00    	jne    4018a5 <get_available_features.constprop.0+0x5a5>
  401440:	45 85 db             	test   %r11d,%r11d
  401443:	74 27                	je     40146c <get_available_features.constprop.0+0x16c>
  401445:	41 f7 c0 00 00 00 10 	test   $0x10000000,%r8d
  40144c:	0f 85 d0 06 00 00    	jne    401b22 <get_available_features.constprop.0+0x822>
  401452:	41 f7 c0 00 10 00 00 	test   $0x1000,%r8d
  401459:	0f 85 d2 06 00 00    	jne    401b31 <get_available_features.constprop.0+0x831>
  40145f:	41 81 e0 00 00 00 20 	and    $0x20000000,%r8d
  401466:	0f 85 d4 06 00 00    	jne    401b40 <get_available_features.constprop.0+0x840>
  40146c:	83 fd 06             	cmp    $0x6,%ebp
  40146f:	0f 86 0b 03 00 00    	jbe    401780 <get_available_features.constprop.0+0x480>
  401475:	b8 07 00 00 00       	mov    $0x7,%eax
  40147a:	31 c9                	xor    %ecx,%ecx
  40147c:	0f a2                	cpuid  
  40147e:	41 89 d1             	mov    %edx,%r9d
  401481:	41 89 c8             	mov    %ecx,%r8d
  401484:	f6 c3 08             	test   $0x8,%bl
  401487:	0f 85 0d 07 00 00    	jne    401b9a <get_available_features.constprop.0+0x89a>
  40148d:	f6 c3 04             	test   $0x4,%bl
  401490:	0f 85 13 07 00 00    	jne    401ba9 <get_available_features.constprop.0+0x8a9>
  401496:	f6 c3 10             	test   $0x10,%bl
  401499:	0f 85 19 07 00 00    	jne    401bb8 <get_available_features.constprop.0+0x8b8>
  40149f:	f6 c7 08             	test   $0x8,%bh
  4014a2:	0f 85 6b 06 00 00    	jne    401b13 <get_available_features.constprop.0+0x813>
  4014a8:	45 85 db             	test   %r11d,%r11d
  4014ab:	74 23                	je     4014d0 <get_available_features.constprop.0+0x1d0>
  4014ad:	f6 c3 20             	test   $0x20,%bl
  4014b0:	0f 85 8c 08 00 00    	jne    401d42 <get_available_features.constprop.0+0xa42>
  4014b6:	41 f7 c0 00 04 00 00 	test   $0x400,%r8d
  4014bd:	0f 85 ad 07 00 00    	jne    401c70 <get_available_features.constprop.0+0x970>
  4014c3:	41 f7 c0 00 02 00 00 	test   $0x200,%r8d
  4014ca:	0f 85 91 07 00 00    	jne    401c61 <get_available_features.constprop.0+0x961>
  4014d0:	f6 c7 01             	test   $0x1,%bh
  4014d3:	0f 85 2c 05 00 00    	jne    401a05 <get_available_features.constprop.0+0x705>
  4014d9:	f6 c3 01             	test   $0x1,%bl
  4014dc:	0f 85 32 05 00 00    	jne    401a14 <get_available_features.constprop.0+0x714>
  4014e2:	f7 c3 00 00 04 00    	test   $0x40000,%ebx
  4014e8:	0f 85 9d 06 00 00    	jne    401b8b <get_available_features.constprop.0+0x88b>
  4014ee:	f7 c3 00 00 08 00    	test   $0x80000,%ebx
  4014f4:	0f 85 73 06 00 00    	jne    401b6d <get_available_features.constprop.0+0x86d>
  4014fa:	f7 c3 00 00 00 20    	test   $0x20000000,%ebx
  401500:	0f 85 76 06 00 00    	jne    401b7c <get_available_features.constprop.0+0x87c>
  401506:	f7 c3 00 00 80 00    	test   $0x800000,%ebx
  40150c:	0f 85 11 05 00 00    	jne    401a23 <get_available_features.constprop.0+0x723>
  401512:	f7 c3 00 00 00 01    	test   $0x1000000,%ebx
  401518:	0f 85 14 05 00 00    	jne    401a32 <get_available_features.constprop.0+0x732>
  40151e:	41 f6 c0 01          	test   $0x1,%r8b
  401522:	0f 85 19 05 00 00    	jne    401a41 <get_available_features.constprop.0+0x741>
  401528:	41 f6 c0 10          	test   $0x10,%r8b
  40152c:	0f 85 1e 05 00 00    	jne    401a50 <get_available_features.constprop.0+0x750>
  401532:	41 f7 c0 00 00 40 00 	test   $0x400000,%r8d
  401539:	0f 85 20 05 00 00    	jne    401a5f <get_available_features.constprop.0+0x75f>
  40153f:	41 f7 c0 00 01 00 00 	test   $0x100,%r8d
  401546:	0f 85 22 05 00 00    	jne    401a6e <get_available_features.constprop.0+0x76e>
  40154c:	41 f7 c0 00 00 00 08 	test   $0x8000000,%r8d
  401553:	0f 85 24 05 00 00    	jne    401a7d <get_available_features.constprop.0+0x77d>
  401559:	41 f7 c0 00 00 00 10 	test   $0x10000000,%r8d
  401560:	0f 85 26 05 00 00    	jne    401a8c <get_available_features.constprop.0+0x78c>
  401566:	41 f7 c0 00 00 00 20 	test   $0x20000000,%r8d
  40156d:	0f 85 28 05 00 00    	jne    401a9b <get_available_features.constprop.0+0x79b>
  401573:	41 f7 c0 00 00 00 02 	test   $0x2000000,%r8d
  40157a:	0f 85 2a 05 00 00    	jne    401aaa <get_available_features.constprop.0+0x7aa>
  401580:	41 f6 c0 20          	test   $0x20,%r8b
  401584:	0f 85 2f 05 00 00    	jne    401ab9 <get_available_features.constprop.0+0x7b9>
  40158a:	41 f6 c0 80          	test   $0x80,%r8b
  40158e:	0f 85 34 05 00 00    	jne    401ac8 <get_available_features.constprop.0+0x7c8>
  401594:	41 f7 c1 00 40 00 00 	test   $0x4000,%r9d
  40159b:	0f 85 36 05 00 00    	jne    401ad7 <get_available_features.constprop.0+0x7d7>
  4015a1:	41 f7 c1 00 00 01 00 	test   $0x10000,%r9d
  4015a8:	0f 85 38 05 00 00    	jne    401ae6 <get_available_features.constprop.0+0x7e6>
  4015ae:	41 f7 c1 00 00 04 00 	test   $0x40000,%r9d
  4015b5:	0f 85 3a 05 00 00    	jne    401af5 <get_available_features.constprop.0+0x7f5>
  4015bb:	41 f7 c1 00 00 10 00 	test   $0x100000,%r9d
  4015c2:	0f 85 3c 05 00 00    	jne    401b04 <get_available_features.constprop.0+0x804>
  4015c8:	41 f6 c1 20          	test   $0x20,%r9b
  4015cc:	0f 85 fb 03 00 00    	jne    4019cd <get_available_features.constprop.0+0x6cd>
  4015d2:	45 85 ed             	test   %r13d,%r13d
  4015d5:	74 27                	je     4015fe <get_available_features.constprop.0+0x2fe>
  4015d7:	41 f7 c1 00 00 00 01 	test   $0x1000000,%r9d
  4015de:	0f 85 40 07 00 00    	jne    401d24 <get_available_features.constprop.0+0xa24>
  4015e4:	41 f7 c1 00 00 00 02 	test   $0x2000000,%r9d
  4015eb:	0f 85 61 06 00 00    	jne    401c52 <get_available_features.constprop.0+0x952>
  4015f1:	41 f7 c1 00 00 40 00 	test   $0x400000,%r9d
  4015f8:	0f 85 45 06 00 00    	jne    401c43 <get_available_features.constprop.0+0x943>
  4015fe:	45 85 e4             	test   %r12d,%r12d
  401601:	0f 84 67 02 00 00    	je     40186e <get_available_features.constprop.0+0x56e>
  401607:	f7 c3 00 00 01 00    	test   $0x10000,%ebx
  40160d:	0f 85 20 07 00 00    	jne    401d33 <get_available_features.constprop.0+0xa33>
  401613:	85 db                	test   %ebx,%ebx
  401615:	0f 88 c0 07 00 00    	js     401ddb <get_available_features.constprop.0+0xadb>
  40161b:	f7 c3 00 00 00 40    	test   $0x40000000,%ebx
  401621:	0f 85 84 07 00 00    	jne    401dab <get_available_features.constprop.0+0xaab>
  401627:	f7 c3 00 00 02 00    	test   $0x20000,%ebx
  40162d:	0f 85 69 07 00 00    	jne    401d9c <get_available_features.constprop.0+0xa9c>
  401633:	f7 c3 00 00 00 10    	test   $0x10000000,%ebx
  401639:	0f 85 4e 07 00 00    	jne    401d8d <get_available_features.constprop.0+0xa8d>
  40163f:	f7 c3 00 00 00 04    	test   $0x4000000,%ebx
  401645:	0f 85 33 07 00 00    	jne    401d7e <get_available_features.constprop.0+0xa7e>
  40164b:	f7 c3 00 00 00 08    	test   $0x8000000,%ebx
  401651:	0f 85 18 07 00 00    	jne    401d6f <get_available_features.constprop.0+0xa6f>
  401657:	81 e3 00 00 20 00    	and    $0x200000,%ebx
  40165d:	0f 85 fd 06 00 00    	jne    401d60 <get_available_features.constprop.0+0xa60>
  401663:	41 f6 c0 02          	test   $0x2,%r8b
  401667:	0f 85 e4 06 00 00    	jne    401d51 <get_available_features.constprop.0+0xa51>
  40166d:	41 f6 c0 40          	test   $0x40,%r8b
  401671:	0f 85 71 06 00 00    	jne    401ce8 <get_available_features.constprop.0+0x9e8>
  401677:	41 f7 c0 00 08 00 00 	test   $0x800,%r8d
  40167e:	0f 85 55 06 00 00    	jne    401cd9 <get_available_features.constprop.0+0x9d9>
  401684:	41 f7 c0 00 10 00 00 	test   $0x1000,%r8d
  40168b:	0f 85 39 06 00 00    	jne    401cca <get_available_features.constprop.0+0x9ca>
  401691:	41 f7 c0 00 40 00 00 	test   $0x4000,%r8d
  401698:	0f 85 1d 06 00 00    	jne    401cbb <get_available_features.constprop.0+0x9bb>
  40169e:	41 f6 c1 04          	test   $0x4,%r9b
  4016a2:	0f 85 04 06 00 00    	jne    401cac <get_available_features.constprop.0+0x9ac>
  4016a8:	41 f6 c1 08          	test   $0x8,%r9b
  4016ac:	0f 85 eb 05 00 00    	jne    401c9d <get_available_features.constprop.0+0x99d>
  4016b2:	41 f7 c1 00 01 00 00 	test   $0x100,%r9d
  4016b9:	0f 85 cf 05 00 00    	jne    401c8e <get_available_features.constprop.0+0x98e>
  4016bf:	41 81 e1 00 00 80 00 	and    $0x800000,%r9d
  4016c6:	0f 85 b3 05 00 00    	jne    401c7f <get_available_features.constprop.0+0x97f>
  4016cc:	b8 07 00 00 00       	mov    $0x7,%eax
  4016d1:	b9 01 00 00 00       	mov    $0x1,%ecx
  4016d6:	0f a2                	cpuid  
  4016d8:	41 89 c1             	mov    %eax,%r9d
  4016db:	a9 00 00 40 00       	test   $0x400000,%eax
  4016e0:	0f 85 4e 05 00 00    	jne    401c34 <get_available_features.constprop.0+0x934>
  4016e6:	45 85 db             	test   %r11d,%r11d
  4016e9:	74 0a                	je     4016f5 <get_available_features.constprop.0+0x3f5>
  4016eb:	41 f6 c1 10          	test   $0x10,%r9b
  4016ef:	0f 85 6d 07 00 00    	jne    401e62 <get_available_features.constprop.0+0xb62>
  4016f5:	41 80 e1 20          	and    $0x20,%r9b
  4016f9:	0f 85 c8 04 00 00    	jne    401bc7 <get_available_features.constprop.0+0x8c7>
  4016ff:	83 fd 0c             	cmp    $0xc,%ebp
  401702:	76 7c                	jbe    401780 <get_available_features.constprop.0+0x480>
  401704:	41 b9 0d 00 00 00    	mov    $0xd,%r9d
  40170a:	b9 01 00 00 00       	mov    $0x1,%ecx
  40170f:	44 89 c8             	mov    %r9d,%eax
  401712:	0f a2                	cpuid  
  401714:	41 89 c1             	mov    %eax,%r9d
  401717:	a8 01                	test   $0x1,%al
  401719:	0f 85 f6 05 00 00    	jne    401d15 <get_available_features.constprop.0+0xa15>
  40171f:	41 f6 c1 02          	test   $0x2,%r9b
  401723:	0f 85 dd 05 00 00    	jne    401d06 <get_available_features.constprop.0+0xa06>
  401729:	41 80 e1 08          	and    $0x8,%r9b
  40172d:	0f 85 c4 05 00 00    	jne    401cf7 <get_available_features.constprop.0+0x9f7>
  401733:	83 fd 13             	cmp    $0x13,%ebp
  401736:	76 48                	jbe    401780 <get_available_features.constprop.0+0x480>
  401738:	b8 14 00 00 00       	mov    $0x14,%eax
  40173d:	31 c9                	xor    %ecx,%ecx
  40173f:	0f a2                	cpuid  
  401741:	80 e3 10             	and    $0x10,%bl
  401744:	0f 85 eb 06 00 00    	jne    401e35 <get_available_features.constprop.0+0xb35>
  40174a:	83 fd 18             	cmp    $0x18,%ebp
  40174d:	76 31                	jbe    401780 <get_available_features.constprop.0+0x480>
  40174f:	b8 19 00 00 00       	mov    $0x19,%eax
  401754:	0f a2                	cpuid  
  401756:	f6 c3 01             	test   $0x1,%bl
  401759:	74 25                	je     401780 <get_available_features.constprop.0+0x480>
  40175b:	bf 5b 00 00 00       	mov    $0x5b,%edi
  401760:	e8 4b 0e 00 00       	call   4025b0 <set_cpu_feature.constprop.0>
  401765:	80 e3 04             	and    $0x4,%bl
  401768:	0f 85 03 07 00 00    	jne    401e71 <get_available_features.constprop.0+0xb71>
  40176e:	41 81 e0 00 00 80 00 	and    $0x800000,%r8d
  401775:	0f 85 05 07 00 00    	jne    401e80 <get_available_features.constprop.0+0xb80>
  40177b:	0f 1f 44 00 00       	nopl   0x0(%rax,%rax,1)
  401780:	b8 00 00 00 80       	mov    $0x80000000,%eax
  401785:	0f a2                	cpuid  
  401787:	41 89 42 0c          	mov    %eax,0xc(%r10)
  40178b:	41 89 c0             	mov    %eax,%r8d
  40178e:	3d 00 00 00 80       	cmp    $0x80000000,%eax
  401793:	0f 86 ca 00 00 00    	jbe    401863 <get_available_features.constprop.0+0x563>
  401799:	b8 01 00 00 80       	mov    $0x80000001,%eax
  40179e:	0f a2                	cpuid  
  4017a0:	41 89 d2             	mov    %edx,%r10d
  4017a3:	41 89 c9             	mov    %ecx,%r9d
  4017a6:	f6 c1 40             	test   $0x40,%cl
  4017a9:	0f 85 a0 03 00 00    	jne    401b4f <get_available_features.constprop.0+0x84f>
  4017af:	41 f6 c1 01          	test   $0x1,%r9b
  4017b3:	0f 85 a5 03 00 00    	jne    401b5e <get_available_features.constprop.0+0x85e>
  4017b9:	44 89 cb             	mov    %r9d,%ebx
  4017bc:	44 89 cd             	mov    %r9d,%ebp
  4017bf:	81 e3 00 80 00 00    	and    $0x8000,%ebx
  4017c5:	81 e5 00 00 20 00    	and    $0x200000,%ebp
  4017cb:	41 f6 c1 20          	test   $0x20,%r9b
  4017cf:	0f 85 07 02 00 00    	jne    4019dc <get_available_features.constprop.0+0x6dc>
  4017d5:	85 db                	test   %ebx,%ebx
  4017d7:	0f 85 dd 05 00 00    	jne    401dba <get_available_features.constprop.0+0xaba>
  4017dd:	85 ed                	test   %ebp,%ebp
  4017df:	0f 85 e7 05 00 00    	jne    401dcc <get_available_features.constprop.0+0xacc>
  4017e5:	41 f7 c1 00 01 00 00 	test   $0x100,%r9d
  4017ec:	0f 85 25 06 00 00    	jne    401e17 <get_available_features.constprop.0+0xb17>
  4017f2:	41 f7 c1 00 00 00 20 	test   $0x20000000,%r9d
  4017f9:	0f 85 09 06 00 00    	jne    401e08 <get_available_features.constprop.0+0xb08>
  4017ff:	41 f7 c2 00 00 00 20 	test   $0x20000000,%r10d
  401806:	0f 85 ed 05 00 00    	jne    401df9 <get_available_features.constprop.0+0xaf9>
  40180c:	41 f7 c2 00 00 00 40 	test   $0x40000000,%r10d
  401813:	0f 85 d1 05 00 00    	jne    401dea <get_available_features.constprop.0+0xaea>
  401819:	45 85 d2             	test   %r10d,%r10d
  40181c:	0f 88 04 06 00 00    	js     401e26 <get_available_features.constprop.0+0xb26>
  401822:	45 85 db             	test   %r11d,%r11d
  401825:	74 1a                	je     401841 <get_available_features.constprop.0+0x541>
  401827:	41 f7 c1 00 00 01 00 	test   $0x10000,%r9d
  40182e:	0f 85 d1 03 00 00    	jne    401c05 <get_available_features.constprop.0+0x905>
  401834:	41 81 e1 00 08 00 00 	and    $0x800,%r9d
  40183b:	0f 85 b5 03 00 00    	jne    401bf6 <get_available_features.constprop.0+0x8f6>
  401841:	41 81 f8 07 00 00 80 	cmp    $0x80000007,%r8d
  401848:	76 19                	jbe    401863 <get_available_features.constprop.0+0x563>
  40184a:	b8 08 00 00 80       	mov    $0x80000008,%eax
  40184f:	0f a2                	cpuid  
  401851:	f6 c3 01             	test   $0x1,%bl
  401854:	0f 85 8d 03 00 00    	jne    401be7 <get_available_features.constprop.0+0x8e7>
  40185a:	80 e7 02             	and    $0x2,%bh
  40185d:	0f 85 73 03 00 00    	jne    401bd6 <get_available_features.constprop.0+0x8d6>
  401863:	48 83 c4 08          	add    $0x8,%rsp
  401867:	5b                   	pop    %rbx
  401868:	5d                   	pop    %rbp
  401869:	41 5c                	pop    %r12
  40186b:	41 5d                	pop    %r13
  40186d:	c3                   	ret    
  40186e:	b8 07 00 00 00       	mov    $0x7,%eax
  401873:	b9 01 00 00 00       	mov    $0x1,%ecx
  401878:	0f a2                	cpuid  
  40187a:	a9 00 00 40 00       	test   $0x400000,%eax
  40187f:	0f 85 8f 03 00 00    	jne    401c14 <get_available_features.constprop.0+0x914>
  401885:	45 85 db             	test   %r11d,%r11d
  401888:	0f 84 71 fe ff ff    	je     4016ff <get_available_features.constprop.0+0x3ff>
  40188e:	a8 10                	test   $0x10,%al
  401890:	0f 84 69 fe ff ff    	je     4016ff <get_available_features.constprop.0+0x3ff>
  401896:	bf 5d 00 00 00       	mov    $0x5d,%edi
  40189b:	e8 10 0d 00 00       	call   4025b0 <set_cpu_feature.constprop.0>
  4018a0:	e9 5a fe ff ff       	jmp    4016ff <get_available_features.constprop.0+0x3ff>
  4018a5:	bf 51 00 00 00       	mov    $0x51,%edi
  4018aa:	e8 01 0d 00 00       	call   4025b0 <set_cpu_feature.constprop.0>
  4018af:	e9 8c fb ff ff       	jmp    401440 <get_available_features.constprop.0+0x140>
  4018b4:	83 0d a1 37 00 00 02 	orl    $0x2,0x37a1(%rip)        # 40505c <__cpu_model+0xc>
  4018bb:	e9 af fa ff ff       	jmp    40136f <get_available_features.constprop.0+0x6f>
  4018c0:	83 0d 95 37 00 00 01 	orl    $0x1,0x3795(%rip)        # 40505c <__cpu_model+0xc>
  4018c7:	e9 96 fa ff ff       	jmp    401362 <get_available_features.constprop.0+0x62>
  4018cc:	bf 33 00 00 00       	mov    $0x33,%edi
  4018d1:	e8 da 0c 00 00       	call   4025b0 <set_cpu_feature.constprop.0>
  4018d6:	e9 c8 fa ff ff       	jmp    4013a3 <get_available_features.constprop.0+0xa3>
  4018db:	bf 2f 00 00 00       	mov    $0x2f,%edi
  4018e0:	e8 cb 0c 00 00       	call   4025b0 <set_cpu_feature.constprop.0>
  4018e5:	e9 ac fa ff ff       	jmp    401396 <get_available_features.constprop.0+0x96>
  4018ea:	83 0d 6b 37 00 00 10 	orl    $0x10,0x376b(%rip)        # 40505c <__cpu_model+0xc>
  4018f1:	e9 93 fa ff ff       	jmp    401389 <get_available_features.constprop.0+0x89>
  4018f6:	83 0d 5f 37 00 00 08 	orl    $0x8,0x375f(%rip)        # 40505c <__cpu_model+0xc>
  4018fd:	e9 7a fa ff ff       	jmp    40137c <get_available_features.constprop.0+0x7c>
  401902:	bf 45 00 00 00       	mov    $0x45,%edi
  401907:	e8 a4 0c 00 00       	call   4025b0 <set_cpu_feature.constprop.0>
  40190c:	e9 22 fb ff ff       	jmp    401433 <get_available_features.constprop.0+0x133>
  401911:	81 0d 41 37 00 00 00 	orl    $0x40000,0x3741(%rip)        # 40505c <__cpu_model+0xc>
  401918:	00 04 00 
  40191b:	e9 06 fb ff ff       	jmp    401426 <get_available_features.constprop.0+0x126>
  401920:	bf 3a 00 00 00       	mov    $0x3a,%edi
  401925:	e8 86 0c 00 00       	call   4025b0 <set_cpu_feature.constprop.0>
  40192a:	e9 ee fa ff ff       	jmp    40141d <get_available_features.constprop.0+0x11d>
  40192f:	bf 2e 00 00 00       	mov    $0x2e,%edi
  401934:	e8 77 0c 00 00       	call   4025b0 <set_cpu_feature.constprop.0>
  401939:	e9 d2 fa ff ff       	jmp    401410 <get_available_features.constprop.0+0x110>
  40193e:	bf 3e 00 00 00       	mov    $0x3e,%edi
  401943:	e8 68 0c 00 00       	call   4025b0 <set_cpu_feature.constprop.0>
  401948:	e9 b6 fa ff ff       	jmp    401403 <get_available_features.constprop.0+0x103>
  40194d:	81 0d 05 37 00 00 00 	orl    $0x100,0x3705(%rip)        # 40505c <__cpu_model+0xc>
  401954:	01 00 00 
  401957:	e9 9f fa ff ff       	jmp    4013fb <get_available_features.constprop.0+0xfb>
  40195c:	81 0d f6 36 00 00 80 	orl    $0x80,0x36f6(%rip)        # 40505c <__cpu_model+0xc>
  401963:	00 00 00 
  401966:	e9 83 fa ff ff       	jmp    4013ee <get_available_features.constprop.0+0xee>
  40196b:	83 0d ea 36 00 00 40 	orl    $0x40,0x36ea(%rip)        # 40505c <__cpu_model+0xc>
  401972:	e9 6a fa ff ff       	jmp    4013e1 <get_available_features.constprop.0+0xe1>
  401977:	83 0d de 36 00 00 20 	orl    $0x20,0x36de(%rip)        # 40505c <__cpu_model+0xc>
  40197e:	e9 51 fa ff ff       	jmp    4013d4 <get_available_features.constprop.0+0xd4>
  401983:	81 0d cf 36 00 00 00 	orl    $0x80000,0x36cf(%rip)        # 40505c <__cpu_model+0xc>
  40198a:	00 08 00 
  40198d:	e9 38 fa ff ff       	jmp    4013ca <get_available_features.constprop.0+0xca>
  401992:	81 0d c0 36 00 00 00 	orl    $0x40000,0x36c0(%rip)        # 40505c <__cpu_model+0xc>
  401999:	00 04 00 
  40199c:	e9 1f fa ff ff       	jmp    4013c0 <get_available_features.constprop.0+0xc0>
  4019a1:	83 0d b4 36 00 00 04 	orl    $0x4,0x36b4(%rip)        # 40505c <__cpu_model+0xc>
  4019a8:	e9 03 fa ff ff       	jmp    4013b0 <get_available_features.constprop.0+0xb0>
  4019ad:	89 c2                	mov    %eax,%edx
  4019af:	45 31 e4             	xor    %r12d,%r12d
  4019b2:	41 bb 01 00 00 00    	mov    $0x1,%r11d
  4019b8:	81 e2 e6 00 00 00    	and    $0xe6,%edx
  4019be:	81 fa e6 00 00 00    	cmp    $0xe6,%edx
  4019c4:	41 0f 94 c4          	sete   %r12b
  4019c8:	e9 6c f9 ff ff       	jmp    401339 <get_available_features.constprop.0+0x39>
  4019cd:	bf 58 00 00 00       	mov    $0x58,%edi
  4019d2:	e8 d9 0b 00 00       	call   4025b0 <set_cpu_feature.constprop.0>
  4019d7:	e9 f6 fb ff ff       	jmp    4015d2 <get_available_features.constprop.0+0x2d2>
  4019dc:	bf 29 00 00 00       	mov    $0x29,%edi
  4019e1:	e8 ca 0b 00 00       	call   4025b0 <set_cpu_feature.constprop.0>
  4019e6:	85 db                	test   %ebx,%ebx
  4019e8:	0f 85 65 04 00 00    	jne    401e53 <get_available_features.constprop.0+0xb53>
  4019ee:	85 ed                	test   %ebp,%ebp
  4019f0:	0f 85 4e 04 00 00    	jne    401e44 <get_available_features.constprop.0+0xb44>
  4019f6:	bf 39 00 00 00       	mov    $0x39,%edi
  4019fb:	e8 b0 0b 00 00       	call   4025b0 <set_cpu_feature.constprop.0>
  401a00:	e9 e0 fd ff ff       	jmp    4017e5 <get_available_features.constprop.0+0x4e5>
  401a05:	81 0d 4d 36 00 00 00 	orl    $0x20000,0x364d(%rip)        # 40505c <__cpu_model+0xc>
  401a0c:	00 02 00 
  401a0f:	e9 c5 fa ff ff       	jmp    4014d9 <get_available_features.constprop.0+0x1d9>
  401a14:	bf 32 00 00 00       	mov    $0x32,%edi
  401a19:	e8 92 0b 00 00       	call   4025b0 <set_cpu_feature.constprop.0>
  401a1e:	e9 bf fa ff ff       	jmp    4014e2 <get_available_features.constprop.0+0x1e2>
  401a23:	bf 2b 00 00 00       	mov    $0x2b,%edi
  401a28:	e8 83 0b 00 00       	call   4025b0 <set_cpu_feature.constprop.0>
  401a2d:	e9 e0 fa ff ff       	jmp    401512 <get_available_features.constprop.0+0x212>
  401a32:	bf 2c 00 00 00       	mov    $0x2c,%edi
  401a37:	e8 74 0b 00 00       	call   4025b0 <set_cpu_feature.constprop.0>
  401a3c:	e9 dd fa ff ff       	jmp    40151e <get_available_features.constprop.0+0x21e>
  401a41:	bf 41 00 00 00       	mov    $0x41,%edi
  401a46:	e8 65 0b 00 00       	call   4025b0 <set_cpu_feature.constprop.0>
  401a4b:	e9 d8 fa ff ff       	jmp    401528 <get_available_features.constprop.0+0x228>
  401a50:	bf 40 00 00 00       	mov    $0x40,%edi
  401a55:	e8 56 0b 00 00       	call   4025b0 <set_cpu_feature.constprop.0>
  401a5a:	e9 d3 fa ff ff       	jmp    401532 <get_available_features.constprop.0+0x232>
  401a5f:	bf 44 00 00 00       	mov    $0x44,%edi
  401a64:	e8 47 0b 00 00       	call   4025b0 <set_cpu_feature.constprop.0>
  401a69:	e9 d1 fa ff ff       	jmp    40153f <get_available_features.constprop.0+0x23f>
  401a6e:	bf 20 00 00 00       	mov    $0x20,%edi
  401a73:	e8 38 0b 00 00       	call   4025b0 <set_cpu_feature.constprop.0>
  401a78:	e9 cf fa ff ff       	jmp    40154c <get_available_features.constprop.0+0x24c>
  401a7d:	bf 3c 00 00 00       	mov    $0x3c,%edi
  401a82:	e8 29 0b 00 00       	call   4025b0 <set_cpu_feature.constprop.0>
  401a87:	e9 cd fa ff ff       	jmp    401559 <get_available_features.constprop.0+0x259>
  401a8c:	bf 3b 00 00 00       	mov    $0x3b,%edi
  401a91:	e8 1a 0b 00 00       	call   4025b0 <set_cpu_feature.constprop.0>
  401a96:	e9 cb fa ff ff       	jmp    401566 <get_available_features.constprop.0+0x266>
  401a9b:	bf 30 00 00 00       	mov    $0x30,%edi
  401aa0:	e8 0b 0b 00 00       	call   4025b0 <set_cpu_feature.constprop.0>
  401aa5:	e9 c9 fa ff ff       	jmp    401573 <get_available_features.constprop.0+0x273>
  401aaa:	bf 2a 00 00 00       	mov    $0x2a,%edi
  401aaf:	e8 fc 0a 00 00       	call   4025b0 <set_cpu_feature.constprop.0>
  401ab4:	e9 c7 fa ff ff       	jmp    401580 <get_available_features.constprop.0+0x280>
  401ab9:	bf 4f 00 00 00       	mov    $0x4f,%edi
  401abe:	e8 ed 0a 00 00       	call   4025b0 <set_cpu_feature.constprop.0>
  401ac3:	e9 c2 fa ff ff       	jmp    40158a <get_available_features.constprop.0+0x28a>
  401ac8:	bf 4b 00 00 00       	mov    $0x4b,%edi
  401acd:	e8 de 0a 00 00       	call   4025b0 <set_cpu_feature.constprop.0>
  401ad2:	e9 bd fa ff ff       	jmp    401594 <get_available_features.constprop.0+0x294>
  401ad7:	bf 48 00 00 00       	mov    $0x48,%edi
  401adc:	e8 cf 0a 00 00       	call   4025b0 <set_cpu_feature.constprop.0>
  401ae1:	e9 bb fa ff ff       	jmp    4015a1 <get_available_features.constprop.0+0x2a1>
  401ae6:	bf 4d 00 00 00       	mov    $0x4d,%edi
  401aeb:	e8 c0 0a 00 00       	call   4025b0 <set_cpu_feature.constprop.0>
  401af0:	e9 b9 fa ff ff       	jmp    4015ae <get_available_features.constprop.0+0x2ae>
  401af5:	bf 3f 00 00 00       	mov    $0x3f,%edi
  401afa:	e8 b1 0a 00 00       	call   4025b0 <set_cpu_feature.constprop.0>
  401aff:	e9 b7 fa ff ff       	jmp    4015bb <get_available_features.constprop.0+0x2bb>
  401b04:	bf 35 00 00 00       	mov    $0x35,%edi
  401b09:	e8 a2 0a 00 00       	call   4025b0 <set_cpu_feature.constprop.0>
  401b0e:	e9 b5 fa ff ff       	jmp    4015c8 <get_available_features.constprop.0+0x2c8>
  401b13:	bf 47 00 00 00       	mov    $0x47,%edi
  401b18:	e8 93 0a 00 00       	call   4025b0 <set_cpu_feature.constprop.0>
  401b1d:	e9 86 f9 ff ff       	jmp    4014a8 <get_available_features.constprop.0+0x1a8>
  401b22:	81 0d 30 35 00 00 00 	orl    $0x200,0x3530(%rip)        # 40505c <__cpu_model+0xc>
  401b29:	02 00 00 
  401b2c:	e9 21 f9 ff ff       	jmp    401452 <get_available_features.constprop.0+0x152>
  401b31:	81 0d 21 35 00 00 00 	orl    $0x4000,0x3521(%rip)        # 40505c <__cpu_model+0xc>
  401b38:	40 00 00 
  401b3b:	e9 1f f9 ff ff       	jmp    40145f <get_available_features.constprop.0+0x15f>
  401b40:	bf 31 00 00 00       	mov    $0x31,%edi
  401b45:	e8 66 0a 00 00       	call   4025b0 <set_cpu_feature.constprop.0>
  401b4a:	e9 1d f9 ff ff       	jmp    40146c <get_available_features.constprop.0+0x16c>
  401b4f:	81 0d 03 35 00 00 00 	orl    $0x800,0x3503(%rip)        # 40505c <__cpu_model+0xc>
  401b56:	08 00 00 
  401b59:	e9 51 fc ff ff       	jmp    4017af <get_available_features.constprop.0+0x4af>
  401b5e:	bf 36 00 00 00       	mov    $0x36,%edi
  401b63:	e8 48 0a 00 00       	call   4025b0 <set_cpu_feature.constprop.0>
  401b68:	e9 4c fc ff ff       	jmp    4017b9 <get_available_features.constprop.0+0x4b9>
  401b6d:	bf 28 00 00 00       	mov    $0x28,%edi
  401b72:	e8 39 0a 00 00       	call   4025b0 <set_cpu_feature.constprop.0>
  401b77:	e9 7e f9 ff ff       	jmp    4014fa <get_available_features.constprop.0+0x1fa>
  401b7c:	bf 4a 00 00 00       	mov    $0x4a,%edi
  401b81:	e8 2a 0a 00 00       	call   4025b0 <set_cpu_feature.constprop.0>
  401b86:	e9 7b f9 ff ff       	jmp    401506 <get_available_features.constprop.0+0x206>
  401b8b:	bf 46 00 00 00       	mov    $0x46,%edi
  401b90:	e8 1b 0a 00 00       	call   4025b0 <set_cpu_feature.constprop.0>
  401b95:	e9 54 f9 ff ff       	jmp    4014ee <get_available_features.constprop.0+0x1ee>
  401b9a:	81 0d b8 34 00 00 00 	orl    $0x10000,0x34b8(%rip)        # 40505c <__cpu_model+0xc>
  401ba1:	00 01 00 
  401ba4:	e9 e4 f8 ff ff       	jmp    40148d <get_available_features.constprop.0+0x18d>
  401ba9:	bf 49 00 00 00       	mov    $0x49,%edi
  401bae:	e8 fd 09 00 00       	call   4025b0 <set_cpu_feature.constprop.0>
  401bb3:	e9 de f8 ff ff       	jmp    401496 <get_available_features.constprop.0+0x196>
  401bb8:	bf 34 00 00 00       	mov    $0x34,%edi
  401bbd:	e8 ee 09 00 00       	call   4025b0 <set_cpu_feature.constprop.0>
  401bc2:	e9 d8 f8 ff ff       	jmp    40149f <get_available_features.constprop.0+0x19f>
  401bc7:	bf 24 00 00 00       	mov    $0x24,%edi
  401bcc:	e8 df 09 00 00       	call   4025b0 <set_cpu_feature.constprop.0>
  401bd1:	e9 29 fb ff ff       	jmp    4016ff <get_available_features.constprop.0+0x3ff>
  401bd6:	58                   	pop    %rax
  401bd7:	bf 50 00 00 00       	mov    $0x50,%edi
  401bdc:	5b                   	pop    %rbx
  401bdd:	5d                   	pop    %rbp
  401bde:	41 5c                	pop    %r12
  401be0:	41 5d                	pop    %r13
  401be2:	e9 c9 09 00 00       	jmp    4025b0 <set_cpu_feature.constprop.0>
  401be7:	bf 2d 00 00 00       	mov    $0x2d,%edi
  401bec:	e8 bf 09 00 00       	call   4025b0 <set_cpu_feature.constprop.0>
  401bf1:	e9 64 fc ff ff       	jmp    40185a <get_available_features.constprop.0+0x55a>
  401bf6:	81 0d 5c 34 00 00 00 	orl    $0x2000,0x345c(%rip)        # 40505c <__cpu_model+0xc>
  401bfd:	20 00 00 
  401c00:	e9 3c fc ff ff       	jmp    401841 <get_available_features.constprop.0+0x541>
  401c05:	81 0d 4d 34 00 00 00 	orl    $0x1000,0x344d(%rip)        # 40505c <__cpu_model+0xc>
  401c0c:	10 00 00 
  401c0f:	e9 20 fc ff ff       	jmp    401834 <get_available_features.constprop.0+0x534>
  401c14:	bf 59 00 00 00       	mov    $0x59,%edi
  401c19:	89 44 24 04          	mov    %eax,0x4(%rsp)
  401c1d:	e8 8e 09 00 00       	call   4025b0 <set_cpu_feature.constprop.0>
  401c22:	45 85 db             	test   %r11d,%r11d
  401c25:	8b 44 24 04          	mov    0x4(%rsp),%eax
  401c29:	0f 85 5f fc ff ff    	jne    40188e <get_available_features.constprop.0+0x58e>
  401c2f:	e9 cb fa ff ff       	jmp    4016ff <get_available_features.constprop.0+0x3ff>
  401c34:	bf 59 00 00 00       	mov    $0x59,%edi
  401c39:	e8 72 09 00 00       	call   4025b0 <set_cpu_feature.constprop.0>
  401c3e:	e9 a3 fa ff ff       	jmp    4016e6 <get_available_features.constprop.0+0x3e6>
  401c43:	bf 57 00 00 00       	mov    $0x57,%edi
  401c48:	e8 63 09 00 00       	call   4025b0 <set_cpu_feature.constprop.0>
  401c4d:	e9 ac f9 ff ff       	jmp    4015fe <get_available_features.constprop.0+0x2fe>
  401c52:	bf 56 00 00 00       	mov    $0x56,%edi
  401c57:	e8 54 09 00 00       	call   4025b0 <set_cpu_feature.constprop.0>
  401c5c:	e9 90 f9 ff ff       	jmp    4015f1 <get_available_features.constprop.0+0x2f1>
  401c61:	bf 4e 00 00 00       	mov    $0x4e,%edi
  401c66:	e8 45 09 00 00       	call   4025b0 <set_cpu_feature.constprop.0>
  401c6b:	e9 60 f8 ff ff       	jmp    4014d0 <get_available_features.constprop.0+0x1d0>
  401c70:	bf 21 00 00 00       	mov    $0x21,%edi
  401c75:	e8 36 09 00 00       	call   4025b0 <set_cpu_feature.constprop.0>
  401c7a:	e9 44 f8 ff ff       	jmp    4014c3 <get_available_features.constprop.0+0x1c3>
  401c7f:	bf 5e 00 00 00       	mov    $0x5e,%edi
  401c84:	e8 27 09 00 00       	call   4025b0 <set_cpu_feature.constprop.0>
  401c89:	e9 3e fa ff ff       	jmp    4016cc <get_available_features.constprop.0+0x3cc>
  401c8e:	bf 25 00 00 00       	mov    $0x25,%edi
  401c93:	e8 18 09 00 00       	call   4025b0 <set_cpu_feature.constprop.0>
  401c98:	e9 22 fa ff ff       	jmp    4016bf <get_available_features.constprop.0+0x3bf>
  401c9d:	81 0d b5 33 00 00 00 	orl    $0x20000000,0x33b5(%rip)        # 40505c <__cpu_model+0xc>
  401ca4:	00 00 20 
  401ca7:	e9 06 fa ff ff       	jmp    4016b2 <get_available_features.constprop.0+0x3b2>
  401cac:	81 0d a6 33 00 00 00 	orl    $0x10000000,0x33a6(%rip)        # 40505c <__cpu_model+0xc>
  401cb3:	00 00 10 
  401cb6:	e9 ed f9 ff ff       	jmp    4016a8 <get_available_features.constprop.0+0x3a8>
  401cbb:	81 0d 97 33 00 00 00 	orl    $0x40000000,0x3397(%rip)        # 40505c <__cpu_model+0xc>
  401cc2:	00 00 40 
  401cc5:	e9 d4 f9 ff ff       	jmp    40169e <get_available_features.constprop.0+0x39e>
  401cca:	bf 23 00 00 00       	mov    $0x23,%edi
  401ccf:	e8 dc 08 00 00       	call   4025b0 <set_cpu_feature.constprop.0>
  401cd4:	e9 b8 f9 ff ff       	jmp    401691 <get_available_features.constprop.0+0x391>
  401cd9:	bf 22 00 00 00       	mov    $0x22,%edi
  401cde:	e8 cd 08 00 00       	call   4025b0 <set_cpu_feature.constprop.0>
  401ce3:	e9 9c f9 ff ff       	jmp    401684 <get_available_features.constprop.0+0x384>
  401ce8:	81 0d 6a 33 00 00 00 	orl    $0x80000000,0x336a(%rip)        # 40505c <__cpu_model+0xc>
  401cef:	00 00 80 
  401cf2:	e9 80 f9 ff ff       	jmp    401677 <get_available_features.constprop.0+0x377>
  401cf7:	bf 54 00 00 00       	mov    $0x54,%edi
  401cfc:	e8 af 08 00 00       	call   4025b0 <set_cpu_feature.constprop.0>
  401d01:	e9 2d fa ff ff       	jmp    401733 <get_available_features.constprop.0+0x433>
  401d06:	bf 52 00 00 00       	mov    $0x52,%edi
  401d0b:	e8 a0 08 00 00       	call   4025b0 <set_cpu_feature.constprop.0>
  401d10:	e9 14 fa ff ff       	jmp    401729 <get_available_features.constprop.0+0x429>
  401d15:	bf 53 00 00 00       	mov    $0x53,%edi
  401d1a:	e8 91 08 00 00       	call   4025b0 <set_cpu_feature.constprop.0>
  401d1f:	e9 fb f9 ff ff       	jmp    40171f <get_available_features.constprop.0+0x41f>
  401d24:	bf 55 00 00 00       	mov    $0x55,%edi
  401d29:	e8 82 08 00 00       	call   4025b0 <set_cpu_feature.constprop.0>
  401d2e:	e9 b1 f8 ff ff       	jmp    4015e4 <get_available_features.constprop.0+0x2e4>
  401d33:	81 0d 1f 33 00 00 00 	orl    $0x8000,0x331f(%rip)        # 40505c <__cpu_model+0xc>
  401d3a:	80 00 00 
  401d3d:	e9 d1 f8 ff ff       	jmp    401613 <get_available_features.constprop.0+0x313>
  401d42:	81 0d 10 33 00 00 00 	orl    $0x400,0x3310(%rip)        # 40505c <__cpu_model+0xc>
  401d49:	04 00 00 
  401d4c:	e9 65 f7 ff ff       	jmp    4014b6 <get_available_features.constprop.0+0x1b6>
  401d51:	81 0d 01 33 00 00 00 	orl    $0x4000000,0x3301(%rip)        # 40505c <__cpu_model+0xc>
  401d58:	00 00 04 
  401d5b:	e9 0d f9 ff ff       	jmp    40166d <get_available_features.constprop.0+0x36d>
  401d60:	81 0d f2 32 00 00 00 	orl    $0x8000000,0x32f2(%rip)        # 40505c <__cpu_model+0xc>
  401d67:	00 00 08 
  401d6a:	e9 f4 f8 ff ff       	jmp    401663 <get_available_features.constprop.0+0x363>
  401d6f:	81 0d e3 32 00 00 00 	orl    $0x1000000,0x32e3(%rip)        # 40505c <__cpu_model+0xc>
  401d76:	00 00 01 
  401d79:	e9 d9 f8 ff ff       	jmp    401657 <get_available_features.constprop.0+0x357>
  401d7e:	81 0d d4 32 00 00 00 	orl    $0x2000000,0x32d4(%rip)        # 40505c <__cpu_model+0xc>
  401d85:	00 00 02 
  401d88:	e9 be f8 ff ff       	jmp    40164b <get_available_features.constprop.0+0x34b>
  401d8d:	81 0d c5 32 00 00 00 	orl    $0x800000,0x32c5(%rip)        # 40505c <__cpu_model+0xc>
  401d94:	00 80 00 
  401d97:	e9 a3 f8 ff ff       	jmp    40163f <get_available_features.constprop.0+0x33f>
  401d9c:	81 0d b6 32 00 00 00 	orl    $0x400000,0x32b6(%rip)        # 40505c <__cpu_model+0xc>
  401da3:	00 40 00 
  401da6:	e9 88 f8 ff ff       	jmp    401633 <get_available_features.constprop.0+0x333>
  401dab:	81 0d a7 32 00 00 00 	orl    $0x200000,0x32a7(%rip)        # 40505c <__cpu_model+0xc>
  401db2:	00 20 00 
  401db5:	e9 6d f8 ff ff       	jmp    401627 <get_available_features.constprop.0+0x327>
  401dba:	bf 38 00 00 00       	mov    $0x38,%edi
  401dbf:	e8 ec 07 00 00       	call   4025b0 <set_cpu_feature.constprop.0>
  401dc4:	85 ed                	test   %ebp,%ebp
  401dc6:	0f 84 19 fa ff ff    	je     4017e5 <get_available_features.constprop.0+0x4e5>
  401dcc:	bf 4c 00 00 00       	mov    $0x4c,%edi
  401dd1:	e8 da 07 00 00       	call   4025b0 <set_cpu_feature.constprop.0>
  401dd6:	e9 0a fa ff ff       	jmp    4017e5 <get_available_features.constprop.0+0x4e5>
  401ddb:	81 0d 77 32 00 00 00 	orl    $0x100000,0x3277(%rip)        # 40505c <__cpu_model+0xc>
  401de2:	00 10 00 
  401de5:	e9 31 f8 ff ff       	jmp    40161b <get_available_features.constprop.0+0x31b>
  401dea:	bf 27 00 00 00       	mov    $0x27,%edi
  401def:	e8 bc 07 00 00       	call   4025b0 <set_cpu_feature.constprop.0>
  401df4:	e9 20 fa ff ff       	jmp    401819 <get_available_features.constprop.0+0x519>
  401df9:	bf 37 00 00 00       	mov    $0x37,%edi
  401dfe:	e8 ad 07 00 00       	call   4025b0 <set_cpu_feature.constprop.0>
  401e03:	e9 04 fa ff ff       	jmp    40180c <get_available_features.constprop.0+0x50c>
  401e08:	bf 3d 00 00 00       	mov    $0x3d,%edi
  401e0d:	e8 9e 07 00 00       	call   4025b0 <set_cpu_feature.constprop.0>
  401e12:	e9 e8 f9 ff ff       	jmp    4017ff <get_available_features.constprop.0+0x4ff>
  401e17:	bf 42 00 00 00       	mov    $0x42,%edi
  401e1c:	e8 8f 07 00 00       	call   4025b0 <set_cpu_feature.constprop.0>
  401e21:	e9 cc f9 ff ff       	jmp    4017f2 <get_available_features.constprop.0+0x4f2>
  401e26:	bf 26 00 00 00       	mov    $0x26,%edi
  401e2b:	e8 80 07 00 00       	call   4025b0 <set_cpu_feature.constprop.0>
  401e30:	e9 ed f9 ff ff       	jmp    401822 <get_available_features.constprop.0+0x522>
  401e35:	bf 43 00 00 00       	mov    $0x43,%edi
  401e3a:	e8 71 07 00 00       	call   4025b0 <set_cpu_feature.constprop.0>
  401e3f:	e9 06 f9 ff ff       	jmp    40174a <get_available_features.constprop.0+0x44a>
  401e44:	bf 4c 00 00 00       	mov    $0x4c,%edi
  401e49:	e8 62 07 00 00       	call   4025b0 <set_cpu_feature.constprop.0>
  401e4e:	e9 a3 fb ff ff       	jmp    4019f6 <get_available_features.constprop.0+0x6f6>
  401e53:	bf 38 00 00 00       	mov    $0x38,%edi
  401e58:	e8 53 07 00 00       	call   4025b0 <set_cpu_feature.constprop.0>
  401e5d:	e9 8c fb ff ff       	jmp    4019ee <get_available_features.constprop.0+0x6ee>
  401e62:	bf 5d 00 00 00       	mov    $0x5d,%edi
  401e67:	e8 44 07 00 00       	call   4025b0 <set_cpu_feature.constprop.0>
  401e6c:	e9 84 f8 ff ff       	jmp    4016f5 <get_available_features.constprop.0+0x3f5>
  401e71:	bf 5c 00 00 00       	mov    $0x5c,%edi
  401e76:	e8 35 07 00 00       	call   4025b0 <set_cpu_feature.constprop.0>
  401e7b:	e9 ee f8 ff ff       	jmp    40176e <get_available_features.constprop.0+0x46e>
  401e80:	bf 5a 00 00 00       	mov    $0x5a,%edi
  401e85:	e8 26 07 00 00       	call   4025b0 <set_cpu_feature.constprop.0>
  401e8a:	e9 f1 f8 ff ff       	jmp    401780 <get_available_features.constprop.0+0x480>
  401e8f:	90                   	nop

0000000000401e90 <__cpu_indicator_init>:
  401e90:	f3 0f 1e fa          	endbr64 
  401e94:	8b 3d b6 31 00 00    	mov    0x31b6(%rip),%edi        # 405050 <__cpu_model>
  401e9a:	85 ff                	test   %edi,%edi
  401e9c:	0f 85 16 06 00 00    	jne    4024b8 <__cpu_indicator_init+0x628>
  401ea2:	53                   	push   %rbx
  401ea3:	31 f6                	xor    %esi,%esi
  401ea5:	89 f0                	mov    %esi,%eax
  401ea7:	48 83 ec 10          	sub    $0x10,%rsp
  401eab:	0f a2                	cpuid  
  401ead:	85 c0                	test   %eax,%eax
  401eaf:	0f 84 ad 00 00 00    	je     401f62 <__cpu_indicator_init+0xd2>
  401eb5:	89 f0                	mov    %esi,%eax
  401eb7:	0f a2                	cpuid  
  401eb9:	41 89 d8             	mov    %ebx,%r8d
  401ebc:	89 c7                	mov    %eax,%edi
  401ebe:	85 c0                	test   %eax,%eax
  401ec0:	0f 8e 9c 00 00 00    	jle    401f62 <__cpu_indicator_init+0xd2>
  401ec6:	89 f0                	mov    %esi,%eax
  401ec8:	0f a2                	cpuid  
  401eca:	85 c0                	test   %eax,%eax
  401ecc:	0f 84 90 00 00 00    	je     401f62 <__cpu_indicator_init+0xd2>
  401ed2:	b8 01 00 00 00       	mov    $0x1,%eax
  401ed7:	0f a2                	cpuid  
  401ed9:	89 c6                	mov    %eax,%esi
  401edb:	41 89 c1             	mov    %eax,%r9d
  401ede:	89 7c 24 08          	mov    %edi,0x8(%rsp)
  401ee2:	89 c7                	mov    %eax,%edi
  401ee4:	c1 ef 04             	shr    $0x4,%edi
  401ee7:	c1 ee 08             	shr    $0x8,%esi
  401eea:	41 c1 e9 0c          	shr    $0xc,%r9d
  401eee:	c1 e8 14             	shr    $0x14,%eax
  401ef1:	83 e7 0f             	and    $0xf,%edi
  401ef4:	83 e6 0f             	and    $0xf,%esi
  401ef7:	41 81 e1 f0 00 00 00 	and    $0xf0,%r9d
  401efe:	0f b6 c0             	movzbl %al,%eax
  401f01:	41 81 f8 47 65 6e 75 	cmp    $0x756e6547,%r8d
  401f08:	74 6b                	je     401f75 <__cpu_indicator_init+0xe5>
  401f0a:	41 81 f8 41 75 74 68 	cmp    $0x68747541,%r8d
  401f11:	0f 84 f1 01 00 00    	je     402108 <__cpu_indicator_init+0x278>
  401f17:	41 81 f8 43 65 6e 74 	cmp    $0x746e6543,%r8d
  401f1e:	0f 84 5a 01 00 00    	je     40207e <__cpu_indicator_init+0x1ee>
  401f24:	41 81 f8 43 79 72 69 	cmp    $0x69727943,%r8d
  401f2b:	0f 84 27 02 00 00    	je     402158 <__cpu_indicator_init+0x2c8>
  401f31:	31 c0                	xor    %eax,%eax
  401f33:	41 81 f8 47 65 6f 64 	cmp    $0x646f6547,%r8d
  401f3a:	0f 94 c0             	sete   %al
  401f3d:	8d 44 40 03          	lea    0x3(%rax,%rax,2),%eax
  401f41:	bf 37 00 00 00       	mov    $0x37,%edi
  401f46:	89 05 04 31 00 00    	mov    %eax,0x3104(%rip)        # 405050 <__cpu_model>
  401f4c:	e8 8f f3 ff ff       	call   4012e0 <has_cpu_feature.part.0.constprop.0>
  401f51:	85 c0                	test   %eax,%eax
  401f53:	74 09                	je     401f5e <__cpu_indicator_init+0xce>
  401f55:	f6 05 00 31 00 00 10 	testb  $0x10,0x3100(%rip)        # 40505c <__cpu_model+0xc>
  401f5c:	75 31                	jne    401f8f <__cpu_indicator_init+0xff>
  401f5e:	31 c0                	xor    %eax,%eax
  401f60:	eb 0d                	jmp    401f6f <__cpu_indicator_init+0xdf>
  401f62:	c7 05 e4 30 00 00 03 	movl   $0x3,0x30e4(%rip)        # 405050 <__cpu_model>
  401f69:	00 00 00 
  401f6c:	83 c8 ff             	or     $0xffffffff,%eax
  401f6f:	48 83 c4 10          	add    $0x10,%rsp
  401f73:	5b                   	pop    %rbx
  401f74:	c3                   	ret    
  401f75:	83 fe 0f             	cmp    $0xf,%esi
  401f78:	0f 84 0a 01 00 00    	je     402088 <__cpu_indicator_init+0x1f8>
  401f7e:	83 fe 06             	cmp    $0x6,%esi
  401f81:	0f 85 07 01 00 00    	jne    40208e <__cpu_indicator_init+0x1fe>
  401f87:	44 09 cf             	or     %r9d,%edi
  401f8a:	e9 ff 00 00 00       	jmp    40208e <__cpu_indicator_init+0x1fe>
  401f8f:	bf 5f 00 00 00       	mov    $0x5f,%edi
  401f94:	e8 17 06 00 00       	call   4025b0 <set_cpu_feature.constprop.0>
  401f99:	bf 2e 00 00 00       	mov    $0x2e,%edi
  401f9e:	e8 3d f3 ff ff       	call   4012e0 <has_cpu_feature.part.0.constprop.0>
  401fa3:	85 c0                	test   %eax,%eax
  401fa5:	74 b7                	je     401f5e <__cpu_indicator_init+0xce>
  401fa7:	8b 35 af 30 00 00    	mov    0x30af(%rip),%esi        # 40505c <__cpu_model+0xc>
  401fad:	40 f6 c6 04          	test   $0x4,%sil
  401fb1:	74 ab                	je     401f5e <__cpu_indicator_init+0xce>
  401fb3:	bf 36 00 00 00       	mov    $0x36,%edi
  401fb8:	e8 23 f3 ff ff       	call   4012e0 <has_cpu_feature.part.0.constprop.0>
  401fbd:	85 c0                	test   %eax,%eax
  401fbf:	74 9d                	je     401f5e <__cpu_indicator_init+0xce>
  401fc1:	81 e6 00 01 00 00    	and    $0x100,%esi
  401fc7:	74 95                	je     401f5e <__cpu_indicator_init+0xce>
  401fc9:	bf 60 00 00 00       	mov    $0x60,%edi
  401fce:	e8 dd 05 00 00       	call   4025b0 <set_cpu_feature.constprop.0>
  401fd3:	8b 35 83 30 00 00    	mov    0x3083(%rip),%esi        # 40505c <__cpu_model+0xc>
  401fd9:	89 f0                	mov    %esi,%eax
  401fdb:	25 00 04 01 00       	and    $0x10400,%eax
  401fe0:	3d 00 04 01 00       	cmp    $0x10400,%eax
  401fe5:	0f 85 73 ff ff ff    	jne    401f5e <__cpu_indicator_init+0xce>
  401feb:	f7 c6 00 00 02 00    	test   $0x20000,%esi
  401ff1:	0f 84 67 ff ff ff    	je     401f5e <__cpu_indicator_init+0xce>
  401ff7:	bf 31 00 00 00       	mov    $0x31,%edi
  401ffc:	e8 df f2 ff ff       	call   4012e0 <has_cpu_feature.part.0.constprop.0>
  402001:	85 c0                	test   %eax,%eax
  402003:	0f 84 55 ff ff ff    	je     401f5e <__cpu_indicator_init+0xce>
  402009:	81 e6 00 40 00 00    	and    $0x4000,%esi
  40200f:	0f 84 49 ff ff ff    	je     401f5e <__cpu_indicator_init+0xce>
  402015:	bf 39 00 00 00       	mov    $0x39,%edi
  40201a:	e8 c1 f2 ff ff       	call   4012e0 <has_cpu_feature.part.0.constprop.0>
  40201f:	85 c0                	test   %eax,%eax
  402021:	0f 84 37 ff ff ff    	je     401f5e <__cpu_indicator_init+0xce>
  402027:	bf 3a 00 00 00       	mov    $0x3a,%edi
  40202c:	e8 af f2 ff ff       	call   4012e0 <has_cpu_feature.part.0.constprop.0>
  402031:	85 c0                	test   %eax,%eax
  402033:	0f 84 25 ff ff ff    	je     401f5e <__cpu_indicator_init+0xce>
  402039:	bf 61 00 00 00       	mov    $0x61,%edi
  40203e:	e8 6d 05 00 00       	call   4025b0 <set_cpu_feature.constprop.0>
  402043:	8b 05 13 30 00 00    	mov    0x3013(%rip),%eax        # 40505c <__cpu_model+0xc>
  402049:	89 c2                	mov    %eax,%edx
  40204b:	81 e2 00 00 a0 00    	and    $0xa00000,%edx
  402051:	81 fa 00 00 a0 00    	cmp    $0xa00000,%edx
  402057:	0f 85 01 ff ff ff    	jne    401f5e <__cpu_indicator_init+0xce>
  40205d:	25 00 00 50 00       	and    $0x500000,%eax
  402062:	3d 00 00 50 00       	cmp    $0x500000,%eax
  402067:	0f 85 f1 fe ff ff    	jne    401f5e <__cpu_indicator_init+0xce>
  40206d:	bf 62 00 00 00       	mov    $0x62,%edi
  402072:	e8 39 05 00 00       	call   4025b0 <set_cpu_feature.constprop.0>
  402077:	31 c0                	xor    %eax,%eax
  402079:	e9 f1 fe ff ff       	jmp    401f6f <__cpu_indicator_init+0xdf>
  40207e:	b8 04 00 00 00       	mov    $0x4,%eax
  402083:	e9 b9 fe ff ff       	jmp    401f41 <__cpu_indicator_init+0xb1>
  402088:	8d 70 0f             	lea    0xf(%rax),%esi
  40208b:	44 09 cf             	or     %r9d,%edi
  40208e:	89 34 24             	mov    %esi,(%rsp)
  402091:	89 ce                	mov    %ecx,%esi
  402093:	89 7c 24 04          	mov    %edi,0x4(%rsp)
  402097:	48 89 e7             	mov    %rsp,%rdi
  40209a:	e8 61 f2 ff ff       	call   401300 <get_available_features.constprop.0>
  40209f:	83 3c 24 06          	cmpl   $0x6,(%rsp)
  4020a3:	75 2a                	jne    4020cf <__cpu_indicator_init+0x23f>
  4020a5:	8b 4c 24 04          	mov    0x4(%rsp),%ecx
  4020a9:	83 f9 1f             	cmp    $0x1f,%ecx
  4020ac:	76 1c                	jbe    4020ca <__cpu_indicator_init+0x23a>
  4020ae:	83 e9 25             	sub    $0x25,%ecx
  4020b1:	81 f9 9a 00 00 00    	cmp    $0x9a,%ecx
  4020b7:	77 16                	ja     4020cf <__cpu_indicator_init+0x23f>
  4020b9:	48 8d 15 5c 13 00 00 	lea    0x135c(%rip),%rdx        # 40341c <__dso_handle+0x414>
  4020c0:	48 63 04 8a          	movslq (%rdx,%rcx,4),%rax
  4020c4:	48 01 d0             	add    %rdx,%rax
  4020c7:	3e ff e0             	notrack jmp *%rax
  4020ca:	83 f9 0e             	cmp    $0xe,%ecx
  4020cd:	77 0a                	ja     4020d9 <__cpu_indicator_init+0x249>
  4020cf:	b8 01 00 00 00       	mov    $0x1,%eax
  4020d4:	e9 68 fe ff ff       	jmp    401f41 <__cpu_indicator_init+0xb1>
  4020d9:	b8 01 00 00 00       	mov    $0x1,%eax
  4020de:	48 d3 e0             	shl    %cl,%rax
  4020e1:	a9 00 80 80 20       	test   $0x20808000,%eax
  4020e6:	0f 85 fd 02 00 00    	jne    4023e9 <__cpu_indicator_init+0x559>
  4020ec:	a9 00 00 00 c4       	test   $0xc4000000,%eax
  4020f1:	0f 85 21 02 00 00    	jne    402318 <__cpu_indicator_init+0x488>
  4020f7:	83 f9 1c             	cmp    $0x1c,%ecx
  4020fa:	75 d3                	jne    4020cf <__cpu_indicator_init+0x23f>
  4020fc:	c7 05 4e 2f 00 00 01 	movl   $0x1,0x2f4e(%rip)        # 405054 <__cpu_model+0x4>
  402103:	00 00 00 
  402106:	eb c7                	jmp    4020cf <__cpu_indicator_init+0x23f>
  402108:	83 fe 0f             	cmp    $0xf,%esi
  40210b:	75 06                	jne    402113 <__cpu_indicator_init+0x283>
  40210d:	8d 70 0f             	lea    0xf(%rax),%esi
  402110:	44 09 cf             	or     %r9d,%edi
  402113:	89 34 24             	mov    %esi,(%rsp)
  402116:	89 ce                	mov    %ecx,%esi
  402118:	89 7c 24 04          	mov    %edi,0x4(%rsp)
  40211c:	48 89 e7             	mov    %rsp,%rdi
  40211f:	e8 dc f1 ff ff       	call   401300 <get_available_features.constprop.0>
  402124:	8b 04 24             	mov    (%rsp),%eax
  402127:	8b 4c 24 04          	mov    0x4(%rsp),%ecx
  40212b:	83 e8 10             	sub    $0x10,%eax
  40212e:	83 f8 09             	cmp    $0x9,%eax
  402131:	77 1b                	ja     40214e <__cpu_indicator_init+0x2be>
  402133:	48 8d 15 4e 15 00 00 	lea    0x154e(%rip),%rdx        # 403688 <__dso_handle+0x680>
  40213a:	48 63 04 82          	movslq (%rdx,%rax,4),%rax
  40213e:	48 01 d0             	add    %rdx,%rax
  402141:	3e ff e0             	notrack jmp *%rax
  402144:	c7 05 06 2f 00 00 08 	movl   $0x8,0x2f06(%rip)        # 405054 <__cpu_model+0x4>
  40214b:	00 00 00 
  40214e:	b8 02 00 00 00       	mov    $0x2,%eax
  402153:	e9 e9 fd ff ff       	jmp    401f41 <__cpu_indicator_init+0xb1>
  402158:	b8 05 00 00 00       	mov    $0x5,%eax
  40215d:	e9 df fd ff ff       	jmp    401f41 <__cpu_indicator_init+0xb1>
  402162:	c7 05 e8 2e 00 00 0f 	movl   $0xf,0x2ee8(%rip)        # 405054 <__cpu_model+0x4>
  402169:	00 00 00 
  40216c:	83 f9 0f             	cmp    $0xf,%ecx
  40216f:	0f 87 44 02 00 00    	ja     4023b9 <__cpu_indicator_init+0x529>
  402175:	c7 05 d9 2e 00 00 1a 	movl   $0x1a,0x2ed9(%rip)        # 405058 <__cpu_model+0x8>
  40217c:	00 00 00 
  40217f:	eb cd                	jmp    40214e <__cpu_indicator_init+0x2be>
  402181:	c7 05 c9 2e 00 00 0a 	movl   $0xa,0x2ec9(%rip)        # 405054 <__cpu_model+0x4>
  402188:	00 00 00 
  40218b:	83 f9 1f             	cmp    $0x1f,%ecx
  40218e:	0f 87 11 02 00 00    	ja     4023a5 <__cpu_indicator_init+0x515>
  402194:	c7 05 ba 2e 00 00 0b 	movl   $0xb,0x2eba(%rip)        # 405058 <__cpu_model+0x8>
  40219b:	00 00 00 
  40219e:	eb ae                	jmp    40214e <__cpu_indicator_init+0x2be>
  4021a0:	c7 05 aa 2e 00 00 09 	movl   $0x9,0x2eaa(%rip)        # 405054 <__cpu_model+0x4>
  4021a7:	00 00 00 
  4021aa:	eb a2                	jmp    40214e <__cpu_indicator_init+0x2be>
  4021ac:	c7 05 9e 2e 00 00 04 	movl   $0x4,0x2e9e(%rip)        # 405054 <__cpu_model+0x4>
  4021b3:	00 00 00 
  4021b6:	83 f9 04             	cmp    $0x4,%ecx
  4021b9:	0f 84 48 02 00 00    	je     402407 <__cpu_indicator_init+0x577>
  4021bf:	83 f9 08             	cmp    $0x8,%ecx
  4021c2:	0f 84 30 02 00 00    	je     4023f8 <__cpu_indicator_init+0x568>
  4021c8:	83 f9 02             	cmp    $0x2,%ecx
  4021cb:	75 81                	jne    40214e <__cpu_indicator_init+0x2be>
  4021cd:	c7 05 81 2e 00 00 04 	movl   $0x4,0x2e81(%rip)        # 405058 <__cpu_model+0x8>
  4021d4:	00 00 00 
  4021d7:	e9 72 ff ff ff       	jmp    40214e <__cpu_indicator_init+0x2be>
  4021dc:	c7 05 6e 2e 00 00 05 	movl   $0x5,0x2e6e(%rip)        # 405054 <__cpu_model+0x4>
  4021e3:	00 00 00 
  4021e6:	83 f9 02             	cmp    $0x2,%ecx
  4021e9:	0f 84 a7 01 00 00    	je     402396 <__cpu_indicator_init+0x506>
  4021ef:	83 f9 0f             	cmp    $0xf,%ecx
  4021f2:	0f 87 d8 01 00 00    	ja     4023d0 <__cpu_indicator_init+0x540>
  4021f8:	c7 05 56 2e 00 00 07 	movl   $0x7,0x2e56(%rip)        # 405058 <__cpu_model+0x8>
  4021ff:	00 00 00 
  402202:	e9 47 ff ff ff       	jmp    40214e <__cpu_indicator_init+0x2be>
  402207:	c7 05 43 2e 00 00 06 	movl   $0x6,0x2e43(%rip)        # 405054 <__cpu_model+0x4>
  40220e:	00 00 00 
  402211:	e9 b9 fe ff ff       	jmp    4020cf <__cpu_indicator_init+0x23f>
  402216:	48 8b 05 c3 14 00 00 	mov    0x14c3(%rip),%rax        # 4036e0 <__dso_handle+0x6d8>
  40221d:	48 89 05 30 2e 00 00 	mov    %rax,0x2e30(%rip)        # 405054 <__cpu_model+0x4>
  402224:	e9 a6 fe ff ff       	jmp    4020cf <__cpu_indicator_init+0x23f>
  402229:	48 8b 05 a8 14 00 00 	mov    0x14a8(%rip),%rax        # 4036d8 <__dso_handle+0x6d0>
  402230:	48 89 05 1d 2e 00 00 	mov    %rax,0x2e1d(%rip)        # 405054 <__cpu_model+0x4>
  402237:	e9 93 fe ff ff       	jmp    4020cf <__cpu_indicator_init+0x23f>
  40223c:	48 8b 05 8d 14 00 00 	mov    0x148d(%rip),%rax        # 4036d0 <__dso_handle+0x6c8>
  402243:	48 89 05 0a 2e 00 00 	mov    %rax,0x2e0a(%rip)        # 405054 <__cpu_model+0x4>
  40224a:	e9 80 fe ff ff       	jmp    4020cf <__cpu_indicator_init+0x23f>
  40224f:	48 8b 05 ba 14 00 00 	mov    0x14ba(%rip),%rax        # 403710 <__dso_handle+0x708>
  402256:	48 89 05 f7 2d 00 00 	mov    %rax,0x2df7(%rip)        # 405054 <__cpu_model+0x4>
  40225d:	e9 6d fe ff ff       	jmp    4020cf <__cpu_indicator_init+0x23f>
  402262:	c7 05 e8 2d 00 00 0e 	movl   $0xe,0x2de8(%rip)        # 405054 <__cpu_model+0x4>
  402269:	00 00 00 
  40226c:	e9 5e fe ff ff       	jmp    4020cf <__cpu_indicator_init+0x23f>
  402271:	48 8b 05 88 14 00 00 	mov    0x1488(%rip),%rax        # 403700 <__dso_handle+0x6f8>
  402278:	48 89 05 d5 2d 00 00 	mov    %rax,0x2dd5(%rip)        # 405054 <__cpu_model+0x4>
  40227f:	e9 4b fe ff ff       	jmp    4020cf <__cpu_indicator_init+0x23f>
  402284:	48 8b 05 2d 14 00 00 	mov    0x142d(%rip),%rax        # 4036b8 <__dso_handle+0x6b0>
  40228b:	48 89 05 c2 2d 00 00 	mov    %rax,0x2dc2(%rip)        # 405054 <__cpu_model+0x4>
  402292:	e9 38 fe ff ff       	jmp    4020cf <__cpu_indicator_init+0x23f>
  402297:	48 8b 05 2a 14 00 00 	mov    0x142a(%rip),%rax        # 4036c8 <__dso_handle+0x6c0>
  40229e:	48 89 05 af 2d 00 00 	mov    %rax,0x2daf(%rip)        # 405054 <__cpu_model+0x4>
  4022a5:	e9 25 fe ff ff       	jmp    4020cf <__cpu_indicator_init+0x23f>
  4022aa:	48 8b 05 37 14 00 00 	mov    0x1437(%rip),%rax        # 4036e8 <__dso_handle+0x6e0>
  4022b1:	48 89 05 9c 2d 00 00 	mov    %rax,0x2d9c(%rip)        # 405054 <__cpu_model+0x4>
  4022b8:	e9 12 fe ff ff       	jmp    4020cf <__cpu_indicator_init+0x23f>
  4022bd:	48 8b 05 44 14 00 00 	mov    0x1444(%rip),%rax        # 403708 <__dso_handle+0x700>
  4022c4:	48 89 05 89 2d 00 00 	mov    %rax,0x2d89(%rip)        # 405054 <__cpu_model+0x4>
  4022cb:	e9 ff fd ff ff       	jmp    4020cf <__cpu_indicator_init+0x23f>
  4022d0:	48 8b 05 e9 13 00 00 	mov    0x13e9(%rip),%rax        # 4036c0 <__dso_handle+0x6b8>
  4022d7:	48 89 05 76 2d 00 00 	mov    %rax,0x2d76(%rip)        # 405054 <__cpu_model+0x4>
  4022de:	e9 ec fd ff ff       	jmp    4020cf <__cpu_indicator_init+0x23f>
  4022e3:	48 8b 05 0e 14 00 00 	mov    0x140e(%rip),%rax        # 4036f8 <__dso_handle+0x6f0>
  4022ea:	48 89 05 63 2d 00 00 	mov    %rax,0x2d63(%rip)        # 405054 <__cpu_model+0x4>
  4022f1:	e9 d9 fd ff ff       	jmp    4020cf <__cpu_indicator_init+0x23f>
  4022f6:	c7 05 54 2d 00 00 0c 	movl   $0xc,0x2d54(%rip)        # 405054 <__cpu_model+0x4>
  4022fd:	00 00 00 
  402300:	e9 ca fd ff ff       	jmp    4020cf <__cpu_indicator_init+0x23f>
  402305:	48 8b 05 e4 13 00 00 	mov    0x13e4(%rip),%rax        # 4036f0 <__dso_handle+0x6e8>
  40230c:	48 89 05 41 2d 00 00 	mov    %rax,0x2d41(%rip)        # 405054 <__cpu_model+0x4>
  402313:	e9 b7 fd ff ff       	jmp    4020cf <__cpu_indicator_init+0x23f>
  402318:	48 8b 05 91 13 00 00 	mov    0x1391(%rip),%rax        # 4036b0 <__dso_handle+0x6a8>
  40231f:	48 89 05 2e 2d 00 00 	mov    %rax,0x2d2e(%rip)        # 405054 <__cpu_model+0x4>
  402326:	e9 a4 fd ff ff       	jmp    4020cf <__cpu_indicator_init+0x23f>
  40232b:	c7 05 1f 2d 00 00 0d 	movl   $0xd,0x2d1f(%rip)        # 405054 <__cpu_model+0x4>
  402332:	00 00 00 
  402335:	e9 95 fd ff ff       	jmp    4020cf <__cpu_indicator_init+0x23f>
  40233a:	48 8b 05 d7 13 00 00 	mov    0x13d7(%rip),%rax        # 403718 <__dso_handle+0x710>
  402341:	48 89 05 0c 2d 00 00 	mov    %rax,0x2d0c(%rip)        # 405054 <__cpu_model+0x4>
  402348:	e9 82 fd ff ff       	jmp    4020cf <__cpu_indicator_init+0x23f>
  40234d:	c7 05 fd 2c 00 00 0b 	movl   $0xb,0x2cfd(%rip)        # 405054 <__cpu_model+0x4>
  402354:	00 00 00 
  402357:	e9 73 fd ff ff       	jmp    4020cf <__cpu_indicator_init+0x23f>
  40235c:	c7 05 ee 2c 00 00 07 	movl   $0x7,0x2cee(%rip)        # 405054 <__cpu_model+0x4>
  402363:	00 00 00 
  402366:	e9 64 fd ff ff       	jmp    4020cf <__cpu_indicator_init+0x23f>
  40236b:	c7 05 df 2c 00 00 03 	movl   $0x3,0x2cdf(%rip)        # 405054 <__cpu_model+0x4>
  402372:	00 00 00 
  402375:	bf 24 00 00 00       	mov    $0x24,%edi
  40237a:	e8 61 ef ff ff       	call   4012e0 <has_cpu_feature.part.0.constprop.0>
  40237f:	85 c0                	test   %eax,%eax
  402381:	0f 84 b4 00 00 00    	je     40243b <__cpu_indicator_init+0x5ab>
  402387:	c7 05 c7 2c 00 00 17 	movl   $0x17,0x2cc7(%rip)        # 405058 <__cpu_model+0x8>
  40238e:	00 00 00 
  402391:	e9 39 fd ff ff       	jmp    4020cf <__cpu_indicator_init+0x23f>
  402396:	c7 05 b8 2c 00 00 08 	movl   $0x8,0x2cb8(%rip)        # 405058 <__cpu_model+0x8>
  40239d:	00 00 00 
  4023a0:	e9 a9 fd ff ff       	jmp    40214e <__cpu_indicator_init+0x2be>
  4023a5:	83 f9 2f             	cmp    $0x2f,%ecx
  4023a8:	76 6c                	jbe    402416 <__cpu_indicator_init+0x586>
  4023aa:	c7 05 a4 2c 00 00 14 	movl   $0x14,0x2ca4(%rip)        # 405058 <__cpu_model+0x8>
  4023b1:	00 00 00 
  4023b4:	e9 95 fd ff ff       	jmp    40214e <__cpu_indicator_init+0x2be>
  4023b9:	bf 4e 00 00 00       	mov    $0x4e,%edi
  4023be:	e8 1d ef ff ff       	call   4012e0 <has_cpu_feature.part.0.constprop.0>
  4023c3:	85 c0                	test   %eax,%eax
  4023c5:	0f 85 aa fd ff ff    	jne    402175 <__cpu_indicator_init+0x2e5>
  4023cb:	e9 7e fd ff ff       	jmp    40214e <__cpu_indicator_init+0x2be>
  4023d0:	83 f9 2f             	cmp    $0x2f,%ecx
  4023d3:	76 c1                	jbe    402396 <__cpu_indicator_init+0x506>
  4023d5:	83 f9 4f             	cmp    $0x4f,%ecx
  4023d8:	77 7e                	ja     402458 <__cpu_indicator_init+0x5c8>
  4023da:	c7 05 74 2c 00 00 09 	movl   $0x9,0x2c74(%rip)        # 405058 <__cpu_model+0x8>
  4023e1:	00 00 00 
  4023e4:	e9 65 fd ff ff       	jmp    40214e <__cpu_indicator_init+0x2be>
  4023e9:	c7 05 61 2c 00 00 02 	movl   $0x2,0x2c61(%rip)        # 405054 <__cpu_model+0x4>
  4023f0:	00 00 00 
  4023f3:	e9 d7 fc ff ff       	jmp    4020cf <__cpu_indicator_init+0x23f>
  4023f8:	c7 05 56 2c 00 00 06 	movl   $0x6,0x2c56(%rip)        # 405058 <__cpu_model+0x8>
  4023ff:	00 00 00 
  402402:	e9 47 fd ff ff       	jmp    40214e <__cpu_indicator_init+0x2be>
  402407:	c7 05 47 2c 00 00 05 	movl   $0x5,0x2c47(%rip)        # 405058 <__cpu_model+0x8>
  40240e:	00 00 00 
  402411:	e9 38 fd ff ff       	jmp    40214e <__cpu_indicator_init+0x2be>
  402416:	bf 2c 00 00 00       	mov    $0x2c,%edi
  40241b:	e8 c0 ee ff ff       	call   4012e0 <has_cpu_feature.part.0.constprop.0>
  402420:	85 c0                	test   %eax,%eax
  402422:	75 86                	jne    4023aa <__cpu_indicator_init+0x51a>
  402424:	bf 2d 00 00 00       	mov    $0x2d,%edi
  402429:	e8 b2 ee ff ff       	call   4012e0 <has_cpu_feature.part.0.constprop.0>
  40242e:	85 c0                	test   %eax,%eax
  402430:	0f 85 5e fd ff ff    	jne    402194 <__cpu_indicator_init+0x304>
  402436:	e9 13 fd ff ff       	jmp    40214e <__cpu_indicator_init+0x2be>
  40243b:	bf 22 00 00 00       	mov    $0x22,%edi
  402440:	e8 9b ee ff ff       	call   4012e0 <has_cpu_feature.part.0.constprop.0>
  402445:	85 c0                	test   %eax,%eax
  402447:	74 31                	je     40247a <__cpu_indicator_init+0x5ea>
  402449:	c7 05 05 2c 00 00 15 	movl   $0x15,0x2c05(%rip)        # 405058 <__cpu_model+0x8>
  402450:	00 00 00 
  402453:	e9 77 fc ff ff       	jmp    4020cf <__cpu_indicator_init+0x23f>
  402458:	83 f9 7f             	cmp    $0x7f,%ecx
  40245b:	76 0e                	jbe    40246b <__cpu_indicator_init+0x5db>
  40245d:	8b 35 f9 2b 00 00    	mov    0x2bf9(%rip),%esi        # 40505c <__cpu_model+0xc>
  402463:	f7 c6 00 04 00 00    	test   $0x400,%esi
  402469:	74 1e                	je     402489 <__cpu_indicator_init+0x5f9>
  40246b:	c7 05 e3 2b 00 00 0a 	movl   $0xa,0x2be3(%rip)        # 405058 <__cpu_model+0x8>
  402472:	00 00 00 
  402475:	e9 d4 fc ff ff       	jmp    40214e <__cpu_indicator_init+0x2be>
  40247a:	c7 05 d4 2b 00 00 10 	movl   $0x10,0x2bd4(%rip)        # 405058 <__cpu_model+0x8>
  402481:	00 00 00 
  402484:	e9 46 fc ff ff       	jmp    4020cf <__cpu_indicator_init+0x23f>
  402489:	bf 53 00 00 00       	mov    $0x53,%edi
  40248e:	e8 4d ee ff ff       	call   4012e0 <has_cpu_feature.part.0.constprop.0>
  402493:	85 c0                	test   %eax,%eax
  402495:	0f 85 3f ff ff ff    	jne    4023da <__cpu_indicator_init+0x54a>
  40249b:	f7 c6 00 00 01 00    	test   $0x10000,%esi
  4024a1:	0f 85 ef fe ff ff    	jne    402396 <__cpu_indicator_init+0x506>
  4024a7:	81 e6 00 20 00 00    	and    $0x2000,%esi
  4024ad:	0f 85 45 fd ff ff    	jne    4021f8 <__cpu_indicator_init+0x368>
  4024b3:	e9 96 fc ff ff       	jmp    40214e <__cpu_indicator_init+0x2be>
  4024b8:	31 c0                	xor    %eax,%eax
  4024ba:	c3                   	ret    

00000000004024bb <.annobin_abi_note.c.hot>:
  4024bb:	0f 1f 44 00 00       	nopl   0x0(%rax,%rax,1)

00000000004024c0 <_start>:
  4024c0:	f3 0f 1e fa          	endbr64 
  4024c4:	31 ed                	xor    %ebp,%ebp
  4024c6:	49 89 d1             	mov    %rdx,%r9
  4024c9:	5e                   	pop    %rsi
  4024ca:	48 89 e2             	mov    %rsp,%rdx
  4024cd:	48 83 e4 f0          	and    $0xfffffffffffffff0,%rsp
  4024d1:	50                   	push   %rax
  4024d2:	54                   	push   %rsp
  4024d3:	45 31 c0             	xor    %r8d,%r8d
  4024d6:	31 c9                	xor    %ecx,%ecx
  4024d8:	48 c7 c7 50 10 40 00 	mov    $0x401050,%rdi
  4024df:	ff 15 0b 2b 00 00    	call   *0x2b0b(%rip)        # 404ff0 <__libc_start_main@GLIBC_2.34>
  4024e5:	f4                   	hlt    

00000000004024e6 <.annobin_abi_note.c>:
  4024e6:	66 2e 0f 1f 84 00 00 	cs nopw 0x0(%rax,%rax,1)
  4024ed:	00 00 00 

00000000004024f0 <_dl_relocate_static_pie>:
  4024f0:	f3 0f 1e fa          	endbr64 
  4024f4:	c3                   	ret    

00000000004024f5 <.annobin__dl_relocate_static_pie.end>:
  4024f5:	66 2e 0f 1f 84 00 00 	cs nopw 0x0(%rax,%rax,1)
  4024fc:	00 00 00 
  4024ff:	90                   	nop

0000000000402500 <deregister_tm_clones>:
  402500:	b8 30 50 40 00       	mov    $0x405030,%eax
  402505:	48 3d 30 50 40 00    	cmp    $0x405030,%rax
  40250b:	74 13                	je     402520 <deregister_tm_clones+0x20>
  40250d:	b8 00 00 00 00       	mov    $0x0,%eax
  402512:	48 85 c0             	test   %rax,%rax
  402515:	74 09                	je     402520 <deregister_tm_clones+0x20>
  402517:	bf 30 50 40 00       	mov    $0x405030,%edi
  40251c:	ff e0                	jmp    *%rax
  40251e:	66 90                	xchg   %ax,%ax
  402520:	c3                   	ret    
  402521:	66 66 2e 0f 1f 84 00 	data16 cs nopw 0x0(%rax,%rax,1)
  402528:	00 00 00 00 
  40252c:	0f 1f 40 00          	nopl   0x0(%rax)

0000000000402530 <register_tm_clones>:
  402530:	be 30 50 40 00       	mov    $0x405030,%esi
  402535:	48 81 ee 30 50 40 00 	sub    $0x405030,%rsi
  40253c:	48 89 f0             	mov    %rsi,%rax
  40253f:	48 c1 ee 3f          	shr    $0x3f,%rsi
  402543:	48 c1 f8 03          	sar    $0x3,%rax
  402547:	48 01 c6             	add    %rax,%rsi
  40254a:	48 d1 fe             	sar    %rsi
  40254d:	74 11                	je     402560 <register_tm_clones+0x30>
  40254f:	b8 00 00 00 00       	mov    $0x0,%eax
  402554:	48 85 c0             	test   %rax,%rax
  402557:	74 07                	je     402560 <register_tm_clones+0x30>
  402559:	bf 30 50 40 00       	mov    $0x405030,%edi
  40255e:	ff e0                	jmp    *%rax
  402560:	c3                   	ret    
  402561:	66 66 2e 0f 1f 84 00 	data16 cs nopw 0x0(%rax,%rax,1)
  402568:	00 00 00 00 
  40256c:	0f 1f 40 00          	nopl   0x0(%rax)

0000000000402570 <__do_global_dtors_aux>:
  402570:	f3 0f 1e fa          	endbr64 
  402574:	80 3d bd 2a 00 00 00 	cmpb   $0x0,0x2abd(%rip)        # 405038 <completed.0>
  40257b:	75 13                	jne    402590 <__do_global_dtors_aux+0x20>
  40257d:	55                   	push   %rbp
  40257e:	48 89 e5             	mov    %rsp,%rbp
  402581:	e8 7a ff ff ff       	call   402500 <deregister_tm_clones>
  402586:	c6 05 ab 2a 00 00 01 	movb   $0x1,0x2aab(%rip)        # 405038 <completed.0>
  40258d:	5d                   	pop    %rbp
  40258e:	c3                   	ret    
  40258f:	90                   	nop
  402590:	c3                   	ret    
  402591:	66 66 2e 0f 1f 84 00 	data16 cs nopw 0x0(%rax,%rax,1)
  402598:	00 00 00 00 
  40259c:	0f 1f 40 00          	nopl   0x0(%rax)

00000000004025a0 <frame_dummy>:
  4025a0:	f3 0f 1e fa          	endbr64 
  4025a4:	eb 8a                	jmp    402530 <register_tm_clones>
  4025a6:	66 2e 0f 1f 84 00 00 	cs nopw 0x0(%rax,%rax,1)
  4025ad:	00 00 00 

00000000004025b0 <set_cpu_feature.constprop.0>:
  4025b0:	89 f9                	mov    %edi,%ecx
  4025b2:	31 c0                	xor    %eax,%eax
  4025b4:	83 ff 3f             	cmp    $0x3f,%edi
  4025b7:	76 08                	jbe    4025c1 <set_cpu_feature.constprop.0+0x11>
  4025b9:	83 ff 60             	cmp    $0x60,%edi
  4025bc:	19 c0                	sbb    %eax,%eax
  4025be:	83 c0 02             	add    $0x2,%eax
  4025c1:	48 8d 35 78 2a 00 00 	lea    0x2a78(%rip),%rsi        # 405040 <__cpu_features2>
  4025c8:	ba 01 00 00 00       	mov    $0x1,%edx
  4025cd:	d3 e2                	shl    %cl,%edx
  4025cf:	09 14 86             	or     %edx,(%rsi,%rax,4)
  4025d2:	c3                   	ret    

Disassembly of section .fini:

00000000004025d4 <_fini>:
  4025d4:	f3 0f 1e fa          	endbr64 
  4025d8:	48 83 ec 08          	sub    $0x8,%rsp
  4025dc:	48 83 c4 08          	add    $0x8,%rsp
  4025e0:	c3                   	ret    
