
bin/div_two_independent_vectors_avx512f_approx:     file format elf64-x86-64


Disassembly of section .init:

0000000000401000 <_init>:
  401000:	f3 0f 1e fa          	endbr64 
  401004:	48 83 ec 08          	sub    $0x8,%rsp
  401008:	48 8b 05 e9 3f 00 00 	mov    0x3fe9(%rip),%rax        # 404ff8 <__gmon_start__@Base>
  40100f:	48 85 c0             	test   %rax,%rax
  401012:	74 02                	je     401016 <_init+0x16>
  401014:	ff d0                	call   *%rax
  401016:	48 83 c4 08          	add    $0x8,%rsp
  40101a:	c3                   	ret    

Disassembly of section .plt:

0000000000401020 <puts@plt-0x10>:
  401020:	ff 35 e2 3f 00 00    	push   0x3fe2(%rip)        # 405008 <_GLOBAL_OFFSET_TABLE_+0x8>
  401026:	ff 25 e4 3f 00 00    	jmp    *0x3fe4(%rip)        # 405010 <_GLOBAL_OFFSET_TABLE_+0x10>
  40102c:	0f 1f 40 00          	nopl   0x0(%rax)

0000000000401030 <puts@plt>:
  401030:	ff 25 e2 3f 00 00    	jmp    *0x3fe2(%rip)        # 405018 <puts@GLIBC_2.2.5>
  401036:	68 00 00 00 00       	push   $0x0
  40103b:	e9 e0 ff ff ff       	jmp    401020 <_init+0x20>

0000000000401040 <printf@plt>:
  401040:	ff 25 da 3f 00 00    	jmp    *0x3fda(%rip)        # 405020 <printf@GLIBC_2.2.5>
  401046:	68 01 00 00 00       	push   $0x1
  40104b:	e9 d0 ff ff ff       	jmp    401020 <_init+0x20>

Disassembly of section .text:

0000000000401050 <main>:
  __m512d poly = _mm512_mul_pd(r2r, r21);
  __m512d res = _mm512_add_pd(_mm512_mul_pd(poly, x), x);
  return res;
}

int main(void) {
  401050:	4c 8d 54 24 08       	lea    0x8(%rsp),%r10
  401055:	48 83 e4 c0          	and    $0xffffffffffffffc0,%rsp
  401059:	41 ff 72 f8          	push   -0x8(%r10)
  40105d:	55                   	push   %rbp
  40105e:	48 89 e5             	mov    %rsp,%rbp
  401061:	41 52                	push   %r10
  401063:	53                   	push   %rbx
  401064:	48 81 ec a0 01 00 00 	sub    $0x1a0,%rsp
  const unsigned long long int N = (unsigned long long int) 4.0e9;
  unsigned long long int i;
  if( ! __builtin_cpu_supports("avx512f")) {
  40106b:	f6 05 eb 3f 00 00 80 	testb  $0x80,0x3feb(%rip)        # 40505d <__cpu_model+0xd>
  401072:	0f 84 5f 01 00 00    	je     4011d7 <main+0x187>
    return 1;
  }
  volatile  __m512d divv[2]; //This is to avoid compiler moving this out of loop
  __m512d av[2];
  volatile __m512d rec[2]; //This is to avoid compiler moving this out of loop
  divv[0] = _mm512_set_pd(1.0000000001, 1.0000000002, 1.0000000003, 1.0000000004, 1.0000000005, 1.0000000006, 1.0000000007, 1.0000000008);
  401078:	62 f1 fd 48 28 05 7e 	vmovapd 0x207e(%rip),%zmm0        # 403100 <__dso_handle+0xf8>
  40107f:	20 00 00 
  divv[1] = _mm512_set_pd(1.0000000002, 1.0000000001, 1.0000000004, 1.0000000003, 1.0000000008, 1.0000000006, 1.0000000007, 1.0000000005);
  401082:	bb 00 28 6b ee       	mov    $0xee6b2800,%ebx
  av[0] =  _mm512_set_pd(1.49182474713380642, 2.22554107607292417, 3.32011725278397885, 4.95303308049624480, 7.38905732167703544, 11.02317856826629416, 16.44465057627291671, 24.53253668079271677);
  av[1] =  _mm512_set_pd(2.22554107607292417, 1.49182474713380642, 4.95303308049624480, 3.32011725278397885, 24.53253668079271677, 11.02317856826629416, 16.44465057627291671, 7.38905732167703544);
  401087:	62 f1 fd 48 28 25 ef 	vmovapd 0x1fef(%rip),%zmm4        # 403080 <__dso_handle+0x78>
  40108e:	1f 00 00 
  av[0] =  _mm512_set_pd(1.49182474713380642, 2.22554107607292417, 3.32011725278397885, 4.95303308049624480, 7.38905732167703544, 11.02317856826629416, 16.44465057627291671, 24.53253668079271677);
  401091:	62 f1 fd 48 28 2d 25 	vmovapd 0x2025(%rip),%zmm5        # 4030c0 <__dso_handle+0xb8>
  401098:	20 00 00 
  40109b:	62 f2 fd 48 19 15 db 	vbroadcastsd 0x20db(%rip),%zmm2        # 403180 <__dso_handle+0x178>
  4010a2:	20 00 00 
  divv[0] = _mm512_set_pd(1.0000000001, 1.0000000002, 1.0000000003, 1.0000000004, 1.0000000005, 1.0000000006, 1.0000000007, 1.0000000008);
  4010a5:	62 f1 fd 48 29 85 50 	vmovapd %zmm0,-0x1b0(%rbp)
  4010ac:	fe ff ff 
  divv[1] = _mm512_set_pd(1.0000000002, 1.0000000001, 1.0000000004, 1.0000000003, 1.0000000008, 1.0000000006, 1.0000000007, 1.0000000005);
  4010af:	62 f1 fd 48 28 05 87 	vmovapd 0x2087(%rip),%zmm0        # 403140 <__dso_handle+0x138>
  4010b6:	20 00 00 
  4010b9:	62 f1 fd 48 29 85 90 	vmovapd %zmm0,-0x170(%rbp)
  4010c0:	fe ff ff 
  __attribute__ ((aligned (64))) double out[8*2];

  for(i=0; i<N; ++i) {
  4010c3:	0f 1f 44 00 00       	nopl   0x0(%rax,%rax,1)
    rec[0] = _m512d_recip_double_r5(divv[0]);
  4010c8:	62 f1 fd 48 28 85 50 	vmovapd -0x1b0(%rbp),%zmm0
  4010cf:	fe ff ff 

extern __inline __m256
__attribute__ ((__gnu_inline__, __always_inline__, __artificial__))
_mm512_cvtpd_ps (__m512d __A)
{
  return (__m256) __builtin_ia32_cvtpd2ps512_mask ((__v8df) __A,
  4010d2:	62 f1 fd 48 5a c8    	vcvtpd2ps %zmm0,%ymm1
}

extern __inline __m256 __attribute__((__gnu_inline__, __always_inline__, __artificial__))
_mm256_rcp_ps (__m256 __A)
{
  return (__m256) __builtin_ia32_rcpps256 ((__v8sf)__A);
  4010d8:	c5 fc 53 c9          	vrcpps %ymm1,%ymm1
  return (__m512d) __builtin_ia32_cvtps2pd512_mask ((__v8sf) __A,
  4010dc:	62 f1 7c 48 5a c9    	vcvtps2pd %ymm1,%zmm1
  return (__m512d) ((__v8df)__A - (__v8df)__B);
  4010e2:	62 f2 ed 48 9c c1    	vfnmadd132pd %zmm1,%zmm2,%zmm0
  return (__m512d) ((__v8df)__A + (__v8df)__B);
  4010e8:	62 f1 fd 48 28 d8    	vmovapd %zmm0,%zmm3
  4010ee:	62 f2 fd 48 98 d8    	vfmadd132pd %zmm0,%zmm0,%zmm3
  4010f4:	62 f2 ed 48 98 c0    	vfmadd132pd %zmm0,%zmm2,%zmm0
  return (__m512d) ((__v8df)__A * (__v8df)__B);
  4010fa:	62 f1 e5 48 59 c0    	vmulpd %zmm0,%zmm3,%zmm0
  return (__m512d) ((__v8df)__A + (__v8df)__B);
  401100:	62 f2 f5 48 98 c8    	vfmadd132pd %zmm0,%zmm1,%zmm1
  401106:	62 f1 fd 48 29 8d d0 	vmovapd %zmm1,-0x130(%rbp)
  40110d:	fe ff ff 
    av[0] = _mm512_mul_pd(av[0], rec[0]);
  401110:	62 f1 fd 48 28 85 d0 	vmovapd -0x130(%rbp),%zmm0
  401117:	fe ff ff 
  return (__m512d) ((__v8df)__A * (__v8df)__B);
  40111a:	62 f1 d5 48 59 e8    	vmulpd %zmm0,%zmm5,%zmm5
    rec[1] = _m512d_recip_double_r5(divv[1]);
  401120:	62 f1 fd 48 28 85 90 	vmovapd -0x170(%rbp),%zmm0
  401127:	fe ff ff 
  return (__m256) __builtin_ia32_cvtpd2ps512_mask ((__v8df) __A,
  40112a:	62 f1 fd 48 5a c8    	vcvtpd2ps %zmm0,%ymm1
  401130:	c5 fc 53 c9          	vrcpps %ymm1,%ymm1
  return (__m512d) __builtin_ia32_cvtps2pd512_mask ((__v8sf) __A,
  401134:	62 f1 7c 48 5a c9    	vcvtps2pd %ymm1,%zmm1
  return (__m512d) ((__v8df)__A - (__v8df)__B);
  40113a:	62 f2 ed 48 9c c1    	vfnmadd132pd %zmm1,%zmm2,%zmm0
  return (__m512d) ((__v8df)__A + (__v8df)__B);
  401140:	62 f1 fd 48 28 d8    	vmovapd %zmm0,%zmm3
  401146:	62 f2 fd 48 98 d8    	vfmadd132pd %zmm0,%zmm0,%zmm3
  40114c:	62 f2 ed 48 98 c0    	vfmadd132pd %zmm0,%zmm2,%zmm0
  return (__m512d) ((__v8df)__A * (__v8df)__B);
  401152:	62 f1 e5 48 59 c0    	vmulpd %zmm0,%zmm3,%zmm0
  return (__m512d) ((__v8df)__A + (__v8df)__B);
  401158:	62 f2 f5 48 98 c8    	vfmadd132pd %zmm0,%zmm1,%zmm1
  40115e:	62 f1 fd 48 29 8d 10 	vmovapd %zmm1,-0xf0(%rbp)
  401165:	ff ff ff 
    av[1] = _mm512_mul_pd(av[1], rec[1]);
  401168:	62 f1 fd 48 28 85 10 	vmovapd -0xf0(%rbp),%zmm0
  40116f:	ff ff ff 
  return (__m512d) ((__v8df)__A * (__v8df)__B);
  401172:	62 f1 dd 48 59 e0    	vmulpd %zmm0,%zmm4,%zmm4
  for(i=0; i<N; ++i) {
  401178:	48 83 eb 01          	sub    $0x1,%rbx
  40117c:	0f 85 46 ff ff ff    	jne    4010c8 <main+0x78>
  *(__m512d *) __P = __A;
  401182:	62 f1 fd 48 29 ad 50 	vmovapd %zmm5,-0xb0(%rbp)
  401189:	ff ff ff 
  40118c:	62 f1 fd 48 29 a5 90 	vmovapd %zmm4,-0x70(%rbp)
  401193:	ff ff ff 
  }

  _mm512_store_pd(out, av[0]);
  _mm512_store_pd(out+8, av[1]);
  for (i=0; i<8*2; ++i) {
  401196:	c5 f8 77             	vzeroupper 
  401199:	0f 1f 80 00 00 00 00 	nopl   0x0(%rax)
    printf("%llu %.17f\n", i, out[i]);
  4011a0:	48 89 de             	mov    %rbx,%rsi
  4011a3:	bf 37 30 40 00       	mov    $0x403037,%edi
  4011a8:	b8 01 00 00 00       	mov    $0x1,%eax
  4011ad:	c5 fb 10 84 dd 50 ff 	vmovsd -0xb0(%rbp,%rbx,8),%xmm0
  4011b4:	ff ff 
  for (i=0; i<8*2; ++i) {
  4011b6:	48 83 c3 01          	add    $0x1,%rbx
    printf("%llu %.17f\n", i, out[i]);
  4011ba:	e8 81 fe ff ff       	call   401040 <printf@plt>
  for (i=0; i<8*2; ++i) {
  4011bf:	48 83 fb 10          	cmp    $0x10,%rbx
  4011c3:	75 db                	jne    4011a0 <main+0x150>
  }

  return 0;
  4011c5:	31 c0                	xor    %eax,%eax
}
  4011c7:	48 81 c4 a0 01 00 00 	add    $0x1a0,%rsp
  4011ce:	5b                   	pop    %rbx
  4011cf:	41 5a                	pop    %r10
  4011d1:	5d                   	pop    %rbp
  4011d2:	49 8d 62 f8          	lea    -0x8(%r10),%rsp
  4011d6:	c3                   	ret    
    printf("CPU does not support avx512f, exiting.\n");
  4011d7:	bf 10 30 40 00       	mov    $0x403010,%edi
  4011dc:	e8 4f fe ff ff       	call   401030 <puts@plt>
    return 1;
  4011e1:	b8 01 00 00 00       	mov    $0x1,%eax
  4011e6:	eb df                	jmp    4011c7 <main+0x177>
  4011e8:	0f 1f 84 00 00 00 00 	nopl   0x0(%rax,%rax,1)
  4011ef:	00 

00000000004011f0 <has_cpu_feature.part.0.constprop.0>:
  4011f0:	89 f9                	mov    %edi,%ecx
  4011f2:	b8 01 00 00 00       	mov    $0x1,%eax
  4011f7:	48 8d 15 42 3e 00 00 	lea    0x3e42(%rip),%rdx        # 405040 <__cpu_features2>
  4011fe:	d3 e0                	shl    %cl,%eax
  401200:	83 ff 3f             	cmp    $0x3f,%edi
  401203:	0f 97 c1             	seta   %cl
  401206:	0f b6 c9             	movzbl %cl,%ecx
  401209:	23 04 8a             	and    (%rdx,%rcx,4),%eax
  40120c:	c3                   	ret    
  40120d:	0f 1f 00             	nopl   (%rax)

0000000000401210 <get_available_features.constprop.0>:
  401210:	41 55                	push   %r13
  401212:	49 89 fa             	mov    %rdi,%r10
  401215:	41 89 f0             	mov    %esi,%r8d
  401218:	41 89 d1             	mov    %edx,%r9d
  40121b:	41 54                	push   %r12
  40121d:	55                   	push   %rbp
  40121e:	53                   	push   %rbx
  40121f:	89 f3                	mov    %esi,%ebx
  401221:	48 83 ec 08          	sub    $0x8,%rsp
  401225:	8b 6f 08             	mov    0x8(%rdi),%ebp
  401228:	81 e3 00 00 00 08    	and    $0x8000000,%ebx
  40122e:	74 2c                	je     40125c <get_available_features.constprop.0+0x4c>
  401230:	31 c9                	xor    %ecx,%ecx
  401232:	0f 01 d0             	xgetbv 
  401235:	89 c2                	mov    %eax,%edx
  401237:	83 e2 06             	and    $0x6,%edx
  40123a:	83 fa 06             	cmp    $0x6,%edx
  40123d:	0f 84 7a 06 00 00    	je     4018bd <get_available_features.constprop.0+0x6ad>
  401243:	45 31 e4             	xor    %r12d,%r12d
  401246:	45 31 db             	xor    %r11d,%r11d
  401249:	25 00 00 06 00       	and    $0x60000,%eax
  40124e:	45 31 ed             	xor    %r13d,%r13d
  401251:	3d 00 00 06 00       	cmp    $0x60000,%eax
  401256:	41 0f 94 c5          	sete   %r13b
  40125a:	eb 09                	jmp    401265 <get_available_features.constprop.0+0x55>
  40125c:	45 31 ed             	xor    %r13d,%r13d
  40125f:	45 31 e4             	xor    %r12d,%r12d
  401262:	45 31 db             	xor    %r11d,%r11d
  401265:	41 f7 c1 00 80 00 00 	test   $0x8000,%r9d
  40126c:	0f 85 5e 05 00 00    	jne    4017d0 <get_available_features.constprop.0+0x5c0>
  401272:	41 f7 c1 00 00 80 00 	test   $0x800000,%r9d
  401279:	0f 85 45 05 00 00    	jne    4017c4 <get_available_features.constprop.0+0x5b4>
  40127f:	41 f7 c1 00 00 00 02 	test   $0x2000000,%r9d
  401286:	0f 85 7a 05 00 00    	jne    401806 <get_available_features.constprop.0+0x5f6>
  40128c:	41 f7 c1 00 00 00 04 	test   $0x4000000,%r9d
  401293:	0f 85 61 05 00 00    	jne    4017fa <get_available_features.constprop.0+0x5ea>
  401299:	41 f7 c1 00 01 00 00 	test   $0x100,%r9d
  4012a0:	0f 85 45 05 00 00    	jne    4017eb <get_available_features.constprop.0+0x5db>
  4012a6:	41 81 e1 00 00 00 01 	and    $0x1000000,%r9d
  4012ad:	0f 85 29 05 00 00    	jne    4017dc <get_available_features.constprop.0+0x5cc>
  4012b3:	41 f7 c0 00 00 80 00 	test   $0x800000,%r8d
  4012ba:	0f 85 f1 05 00 00    	jne    4018b1 <get_available_features.constprop.0+0x6a1>
  4012c0:	45 89 c1             	mov    %r8d,%r9d
  4012c3:	41 81 e1 00 00 00 02 	and    $0x2000000,%r9d
  4012ca:	0f 85 d2 05 00 00    	jne    4018a2 <get_available_features.constprop.0+0x692>
  4012d0:	41 f6 c0 02          	test   $0x2,%r8b
  4012d4:	0f 85 b9 05 00 00    	jne    401893 <get_available_features.constprop.0+0x683>
  4012da:	41 f6 c0 01          	test   $0x1,%r8b
  4012de:	0f 85 a3 05 00 00    	jne    401887 <get_available_features.constprop.0+0x677>
  4012e4:	41 f7 c0 00 02 00 00 	test   $0x200,%r8d
  4012eb:	0f 85 8a 05 00 00    	jne    40187b <get_available_features.constprop.0+0x66b>
  4012f1:	41 f7 c0 00 00 08 00 	test   $0x80000,%r8d
  4012f8:	0f 85 6e 05 00 00    	jne    40186c <get_available_features.constprop.0+0x65c>
  4012fe:	41 f7 c0 00 00 10 00 	test   $0x100000,%r8d
  401305:	0f 85 52 05 00 00    	jne    40185d <get_available_features.constprop.0+0x64d>
  40130b:	85 db                	test   %ebx,%ebx
  40130d:	0f 85 3b 05 00 00    	jne    40184e <get_available_features.constprop.0+0x63e>
  401313:	41 f7 c0 00 20 00 00 	test   $0x2000,%r8d
  40131a:	0f 85 1f 05 00 00    	jne    40183f <get_available_features.constprop.0+0x62f>
  401320:	41 f7 c0 00 00 40 00 	test   $0x400000,%r8d
  401327:	0f 85 03 05 00 00    	jne    401830 <get_available_features.constprop.0+0x620>
  40132d:	45 85 c9             	test   %r9d,%r9d
  401330:	0f 85 eb 04 00 00    	jne    401821 <get_available_features.constprop.0+0x611>
  401336:	41 f7 c0 00 00 00 40 	test   $0x40000000,%r8d
  40133d:	0f 85 cf 04 00 00    	jne    401812 <get_available_features.constprop.0+0x602>
  401343:	41 f7 c0 00 00 00 04 	test   $0x4000000,%r8d
  40134a:	0f 85 65 04 00 00    	jne    4017b5 <get_available_features.constprop.0+0x5a5>
  401350:	45 85 db             	test   %r11d,%r11d
  401353:	74 27                	je     40137c <get_available_features.constprop.0+0x16c>
  401355:	41 f7 c0 00 00 00 10 	test   $0x10000000,%r8d
  40135c:	0f 85 d0 06 00 00    	jne    401a32 <get_available_features.constprop.0+0x822>
  401362:	41 f7 c0 00 10 00 00 	test   $0x1000,%r8d
  401369:	0f 85 d2 06 00 00    	jne    401a41 <get_available_features.constprop.0+0x831>
  40136f:	41 81 e0 00 00 00 20 	and    $0x20000000,%r8d
  401376:	0f 85 d4 06 00 00    	jne    401a50 <get_available_features.constprop.0+0x840>
  40137c:	83 fd 06             	cmp    $0x6,%ebp
  40137f:	0f 86 0b 03 00 00    	jbe    401690 <get_available_features.constprop.0+0x480>
  401385:	b8 07 00 00 00       	mov    $0x7,%eax
  40138a:	31 c9                	xor    %ecx,%ecx
  40138c:	0f a2                	cpuid  
  40138e:	41 89 d1             	mov    %edx,%r9d
  401391:	41 89 c8             	mov    %ecx,%r8d
  401394:	f6 c3 08             	test   $0x8,%bl
  401397:	0f 85 0d 07 00 00    	jne    401aaa <get_available_features.constprop.0+0x89a>
  40139d:	f6 c3 04             	test   $0x4,%bl
  4013a0:	0f 85 13 07 00 00    	jne    401ab9 <get_available_features.constprop.0+0x8a9>
  4013a6:	f6 c3 10             	test   $0x10,%bl
  4013a9:	0f 85 19 07 00 00    	jne    401ac8 <get_available_features.constprop.0+0x8b8>
  4013af:	f6 c7 08             	test   $0x8,%bh
  4013b2:	0f 85 6b 06 00 00    	jne    401a23 <get_available_features.constprop.0+0x813>
  4013b8:	45 85 db             	test   %r11d,%r11d
  4013bb:	74 23                	je     4013e0 <get_available_features.constprop.0+0x1d0>
  4013bd:	f6 c3 20             	test   $0x20,%bl
  4013c0:	0f 85 8c 08 00 00    	jne    401c52 <get_available_features.constprop.0+0xa42>
  4013c6:	41 f7 c0 00 04 00 00 	test   $0x400,%r8d
  4013cd:	0f 85 ad 07 00 00    	jne    401b80 <get_available_features.constprop.0+0x970>
  4013d3:	41 f7 c0 00 02 00 00 	test   $0x200,%r8d
  4013da:	0f 85 91 07 00 00    	jne    401b71 <get_available_features.constprop.0+0x961>
  4013e0:	f6 c7 01             	test   $0x1,%bh
  4013e3:	0f 85 2c 05 00 00    	jne    401915 <get_available_features.constprop.0+0x705>
  4013e9:	f6 c3 01             	test   $0x1,%bl
  4013ec:	0f 85 32 05 00 00    	jne    401924 <get_available_features.constprop.0+0x714>
  4013f2:	f7 c3 00 00 04 00    	test   $0x40000,%ebx
  4013f8:	0f 85 9d 06 00 00    	jne    401a9b <get_available_features.constprop.0+0x88b>
  4013fe:	f7 c3 00 00 08 00    	test   $0x80000,%ebx
  401404:	0f 85 73 06 00 00    	jne    401a7d <get_available_features.constprop.0+0x86d>
  40140a:	f7 c3 00 00 00 20    	test   $0x20000000,%ebx
  401410:	0f 85 76 06 00 00    	jne    401a8c <get_available_features.constprop.0+0x87c>
  401416:	f7 c3 00 00 80 00    	test   $0x800000,%ebx
  40141c:	0f 85 11 05 00 00    	jne    401933 <get_available_features.constprop.0+0x723>
  401422:	f7 c3 00 00 00 01    	test   $0x1000000,%ebx
  401428:	0f 85 14 05 00 00    	jne    401942 <get_available_features.constprop.0+0x732>
  40142e:	41 f6 c0 01          	test   $0x1,%r8b
  401432:	0f 85 19 05 00 00    	jne    401951 <get_available_features.constprop.0+0x741>
  401438:	41 f6 c0 10          	test   $0x10,%r8b
  40143c:	0f 85 1e 05 00 00    	jne    401960 <get_available_features.constprop.0+0x750>
  401442:	41 f7 c0 00 00 40 00 	test   $0x400000,%r8d
  401449:	0f 85 20 05 00 00    	jne    40196f <get_available_features.constprop.0+0x75f>
  40144f:	41 f7 c0 00 01 00 00 	test   $0x100,%r8d
  401456:	0f 85 22 05 00 00    	jne    40197e <get_available_features.constprop.0+0x76e>
  40145c:	41 f7 c0 00 00 00 08 	test   $0x8000000,%r8d
  401463:	0f 85 24 05 00 00    	jne    40198d <get_available_features.constprop.0+0x77d>
  401469:	41 f7 c0 00 00 00 10 	test   $0x10000000,%r8d
  401470:	0f 85 26 05 00 00    	jne    40199c <get_available_features.constprop.0+0x78c>
  401476:	41 f7 c0 00 00 00 20 	test   $0x20000000,%r8d
  40147d:	0f 85 28 05 00 00    	jne    4019ab <get_available_features.constprop.0+0x79b>
  401483:	41 f7 c0 00 00 00 02 	test   $0x2000000,%r8d
  40148a:	0f 85 2a 05 00 00    	jne    4019ba <get_available_features.constprop.0+0x7aa>
  401490:	41 f6 c0 20          	test   $0x20,%r8b
  401494:	0f 85 2f 05 00 00    	jne    4019c9 <get_available_features.constprop.0+0x7b9>
  40149a:	41 f6 c0 80          	test   $0x80,%r8b
  40149e:	0f 85 34 05 00 00    	jne    4019d8 <get_available_features.constprop.0+0x7c8>
  4014a4:	41 f7 c1 00 40 00 00 	test   $0x4000,%r9d
  4014ab:	0f 85 36 05 00 00    	jne    4019e7 <get_available_features.constprop.0+0x7d7>
  4014b1:	41 f7 c1 00 00 01 00 	test   $0x10000,%r9d
  4014b8:	0f 85 38 05 00 00    	jne    4019f6 <get_available_features.constprop.0+0x7e6>
  4014be:	41 f7 c1 00 00 04 00 	test   $0x40000,%r9d
  4014c5:	0f 85 3a 05 00 00    	jne    401a05 <get_available_features.constprop.0+0x7f5>
  4014cb:	41 f7 c1 00 00 10 00 	test   $0x100000,%r9d
  4014d2:	0f 85 3c 05 00 00    	jne    401a14 <get_available_features.constprop.0+0x804>
  4014d8:	41 f6 c1 20          	test   $0x20,%r9b
  4014dc:	0f 85 fb 03 00 00    	jne    4018dd <get_available_features.constprop.0+0x6cd>
  4014e2:	45 85 ed             	test   %r13d,%r13d
  4014e5:	74 27                	je     40150e <get_available_features.constprop.0+0x2fe>
  4014e7:	41 f7 c1 00 00 00 01 	test   $0x1000000,%r9d
  4014ee:	0f 85 40 07 00 00    	jne    401c34 <get_available_features.constprop.0+0xa24>
  4014f4:	41 f7 c1 00 00 00 02 	test   $0x2000000,%r9d
  4014fb:	0f 85 61 06 00 00    	jne    401b62 <get_available_features.constprop.0+0x952>
  401501:	41 f7 c1 00 00 40 00 	test   $0x400000,%r9d
  401508:	0f 85 45 06 00 00    	jne    401b53 <get_available_features.constprop.0+0x943>
  40150e:	45 85 e4             	test   %r12d,%r12d
  401511:	0f 84 67 02 00 00    	je     40177e <get_available_features.constprop.0+0x56e>
  401517:	f7 c3 00 00 01 00    	test   $0x10000,%ebx
  40151d:	0f 85 20 07 00 00    	jne    401c43 <get_available_features.constprop.0+0xa33>
  401523:	85 db                	test   %ebx,%ebx
  401525:	0f 88 c0 07 00 00    	js     401ceb <get_available_features.constprop.0+0xadb>
  40152b:	f7 c3 00 00 00 40    	test   $0x40000000,%ebx
  401531:	0f 85 84 07 00 00    	jne    401cbb <get_available_features.constprop.0+0xaab>
  401537:	f7 c3 00 00 02 00    	test   $0x20000,%ebx
  40153d:	0f 85 69 07 00 00    	jne    401cac <get_available_features.constprop.0+0xa9c>
  401543:	f7 c3 00 00 00 10    	test   $0x10000000,%ebx
  401549:	0f 85 4e 07 00 00    	jne    401c9d <get_available_features.constprop.0+0xa8d>
  40154f:	f7 c3 00 00 00 04    	test   $0x4000000,%ebx
  401555:	0f 85 33 07 00 00    	jne    401c8e <get_available_features.constprop.0+0xa7e>
  40155b:	f7 c3 00 00 00 08    	test   $0x8000000,%ebx
  401561:	0f 85 18 07 00 00    	jne    401c7f <get_available_features.constprop.0+0xa6f>
  401567:	81 e3 00 00 20 00    	and    $0x200000,%ebx
  40156d:	0f 85 fd 06 00 00    	jne    401c70 <get_available_features.constprop.0+0xa60>
  401573:	41 f6 c0 02          	test   $0x2,%r8b
  401577:	0f 85 e4 06 00 00    	jne    401c61 <get_available_features.constprop.0+0xa51>
  40157d:	41 f6 c0 40          	test   $0x40,%r8b
  401581:	0f 85 71 06 00 00    	jne    401bf8 <get_available_features.constprop.0+0x9e8>
  401587:	41 f7 c0 00 08 00 00 	test   $0x800,%r8d
  40158e:	0f 85 55 06 00 00    	jne    401be9 <get_available_features.constprop.0+0x9d9>
  401594:	41 f7 c0 00 10 00 00 	test   $0x1000,%r8d
  40159b:	0f 85 39 06 00 00    	jne    401bda <get_available_features.constprop.0+0x9ca>
  4015a1:	41 f7 c0 00 40 00 00 	test   $0x4000,%r8d
  4015a8:	0f 85 1d 06 00 00    	jne    401bcb <get_available_features.constprop.0+0x9bb>
  4015ae:	41 f6 c1 04          	test   $0x4,%r9b
  4015b2:	0f 85 04 06 00 00    	jne    401bbc <get_available_features.constprop.0+0x9ac>
  4015b8:	41 f6 c1 08          	test   $0x8,%r9b
  4015bc:	0f 85 eb 05 00 00    	jne    401bad <get_available_features.constprop.0+0x99d>
  4015c2:	41 f7 c1 00 01 00 00 	test   $0x100,%r9d
  4015c9:	0f 85 cf 05 00 00    	jne    401b9e <get_available_features.constprop.0+0x98e>
  4015cf:	41 81 e1 00 00 80 00 	and    $0x800000,%r9d
  4015d6:	0f 85 b3 05 00 00    	jne    401b8f <get_available_features.constprop.0+0x97f>
  4015dc:	b8 07 00 00 00       	mov    $0x7,%eax
  4015e1:	b9 01 00 00 00       	mov    $0x1,%ecx
  4015e6:	0f a2                	cpuid  
  4015e8:	41 89 c1             	mov    %eax,%r9d
  4015eb:	a9 00 00 40 00       	test   $0x400000,%eax
  4015f0:	0f 85 4e 05 00 00    	jne    401b44 <get_available_features.constprop.0+0x934>
  4015f6:	45 85 db             	test   %r11d,%r11d
  4015f9:	74 0a                	je     401605 <get_available_features.constprop.0+0x3f5>
  4015fb:	41 f6 c1 10          	test   $0x10,%r9b
  4015ff:	0f 85 6d 07 00 00    	jne    401d72 <get_available_features.constprop.0+0xb62>
  401605:	41 80 e1 20          	and    $0x20,%r9b
  401609:	0f 85 c8 04 00 00    	jne    401ad7 <get_available_features.constprop.0+0x8c7>
  40160f:	83 fd 0c             	cmp    $0xc,%ebp
  401612:	76 7c                	jbe    401690 <get_available_features.constprop.0+0x480>
  401614:	41 b9 0d 00 00 00    	mov    $0xd,%r9d
  40161a:	b9 01 00 00 00       	mov    $0x1,%ecx
  40161f:	44 89 c8             	mov    %r9d,%eax
  401622:	0f a2                	cpuid  
  401624:	41 89 c1             	mov    %eax,%r9d
  401627:	a8 01                	test   $0x1,%al
  401629:	0f 85 f6 05 00 00    	jne    401c25 <get_available_features.constprop.0+0xa15>
  40162f:	41 f6 c1 02          	test   $0x2,%r9b
  401633:	0f 85 dd 05 00 00    	jne    401c16 <get_available_features.constprop.0+0xa06>
  401639:	41 80 e1 08          	and    $0x8,%r9b
  40163d:	0f 85 c4 05 00 00    	jne    401c07 <get_available_features.constprop.0+0x9f7>
  401643:	83 fd 13             	cmp    $0x13,%ebp
  401646:	76 48                	jbe    401690 <get_available_features.constprop.0+0x480>
  401648:	b8 14 00 00 00       	mov    $0x14,%eax
  40164d:	31 c9                	xor    %ecx,%ecx
  40164f:	0f a2                	cpuid  
  401651:	80 e3 10             	and    $0x10,%bl
  401654:	0f 85 eb 06 00 00    	jne    401d45 <get_available_features.constprop.0+0xb35>
  40165a:	83 fd 18             	cmp    $0x18,%ebp
  40165d:	76 31                	jbe    401690 <get_available_features.constprop.0+0x480>
  40165f:	b8 19 00 00 00       	mov    $0x19,%eax
  401664:	0f a2                	cpuid  
  401666:	f6 c3 01             	test   $0x1,%bl
  401669:	74 25                	je     401690 <get_available_features.constprop.0+0x480>
  40166b:	bf 5b 00 00 00       	mov    $0x5b,%edi
  401670:	e8 4b 0e 00 00       	call   4024c0 <set_cpu_feature.constprop.0>
  401675:	80 e3 04             	and    $0x4,%bl
  401678:	0f 85 03 07 00 00    	jne    401d81 <get_available_features.constprop.0+0xb71>
  40167e:	41 81 e0 00 00 80 00 	and    $0x800000,%r8d
  401685:	0f 85 05 07 00 00    	jne    401d90 <get_available_features.constprop.0+0xb80>
  40168b:	0f 1f 44 00 00       	nopl   0x0(%rax,%rax,1)
  401690:	b8 00 00 00 80       	mov    $0x80000000,%eax
  401695:	0f a2                	cpuid  
  401697:	41 89 42 0c          	mov    %eax,0xc(%r10)
  40169b:	41 89 c0             	mov    %eax,%r8d
  40169e:	3d 00 00 00 80       	cmp    $0x80000000,%eax
  4016a3:	0f 86 ca 00 00 00    	jbe    401773 <get_available_features.constprop.0+0x563>
  4016a9:	b8 01 00 00 80       	mov    $0x80000001,%eax
  4016ae:	0f a2                	cpuid  
  4016b0:	41 89 d2             	mov    %edx,%r10d
  4016b3:	41 89 c9             	mov    %ecx,%r9d
  4016b6:	f6 c1 40             	test   $0x40,%cl
  4016b9:	0f 85 a0 03 00 00    	jne    401a5f <get_available_features.constprop.0+0x84f>
  4016bf:	41 f6 c1 01          	test   $0x1,%r9b
  4016c3:	0f 85 a5 03 00 00    	jne    401a6e <get_available_features.constprop.0+0x85e>
  4016c9:	44 89 cb             	mov    %r9d,%ebx
  4016cc:	44 89 cd             	mov    %r9d,%ebp
  4016cf:	81 e3 00 80 00 00    	and    $0x8000,%ebx
  4016d5:	81 e5 00 00 20 00    	and    $0x200000,%ebp
  4016db:	41 f6 c1 20          	test   $0x20,%r9b
  4016df:	0f 85 07 02 00 00    	jne    4018ec <get_available_features.constprop.0+0x6dc>
  4016e5:	85 db                	test   %ebx,%ebx
  4016e7:	0f 85 dd 05 00 00    	jne    401cca <get_available_features.constprop.0+0xaba>
  4016ed:	85 ed                	test   %ebp,%ebp
  4016ef:	0f 85 e7 05 00 00    	jne    401cdc <get_available_features.constprop.0+0xacc>
  4016f5:	41 f7 c1 00 01 00 00 	test   $0x100,%r9d
  4016fc:	0f 85 25 06 00 00    	jne    401d27 <get_available_features.constprop.0+0xb17>
  401702:	41 f7 c1 00 00 00 20 	test   $0x20000000,%r9d
  401709:	0f 85 09 06 00 00    	jne    401d18 <get_available_features.constprop.0+0xb08>
  40170f:	41 f7 c2 00 00 00 20 	test   $0x20000000,%r10d
  401716:	0f 85 ed 05 00 00    	jne    401d09 <get_available_features.constprop.0+0xaf9>
  40171c:	41 f7 c2 00 00 00 40 	test   $0x40000000,%r10d
  401723:	0f 85 d1 05 00 00    	jne    401cfa <get_available_features.constprop.0+0xaea>
  401729:	45 85 d2             	test   %r10d,%r10d
  40172c:	0f 88 04 06 00 00    	js     401d36 <get_available_features.constprop.0+0xb26>
  401732:	45 85 db             	test   %r11d,%r11d
  401735:	74 1a                	je     401751 <get_available_features.constprop.0+0x541>
  401737:	41 f7 c1 00 00 01 00 	test   $0x10000,%r9d
  40173e:	0f 85 d1 03 00 00    	jne    401b15 <get_available_features.constprop.0+0x905>
  401744:	41 81 e1 00 08 00 00 	and    $0x800,%r9d
  40174b:	0f 85 b5 03 00 00    	jne    401b06 <get_available_features.constprop.0+0x8f6>
  401751:	41 81 f8 07 00 00 80 	cmp    $0x80000007,%r8d
  401758:	76 19                	jbe    401773 <get_available_features.constprop.0+0x563>
  40175a:	b8 08 00 00 80       	mov    $0x80000008,%eax
  40175f:	0f a2                	cpuid  
  401761:	f6 c3 01             	test   $0x1,%bl
  401764:	0f 85 8d 03 00 00    	jne    401af7 <get_available_features.constprop.0+0x8e7>
  40176a:	80 e7 02             	and    $0x2,%bh
  40176d:	0f 85 73 03 00 00    	jne    401ae6 <get_available_features.constprop.0+0x8d6>
  401773:	48 83 c4 08          	add    $0x8,%rsp
  401777:	5b                   	pop    %rbx
  401778:	5d                   	pop    %rbp
  401779:	41 5c                	pop    %r12
  40177b:	41 5d                	pop    %r13
  40177d:	c3                   	ret    
  40177e:	b8 07 00 00 00       	mov    $0x7,%eax
  401783:	b9 01 00 00 00       	mov    $0x1,%ecx
  401788:	0f a2                	cpuid  
  40178a:	a9 00 00 40 00       	test   $0x400000,%eax
  40178f:	0f 85 8f 03 00 00    	jne    401b24 <get_available_features.constprop.0+0x914>
  401795:	45 85 db             	test   %r11d,%r11d
  401798:	0f 84 71 fe ff ff    	je     40160f <get_available_features.constprop.0+0x3ff>
  40179e:	a8 10                	test   $0x10,%al
  4017a0:	0f 84 69 fe ff ff    	je     40160f <get_available_features.constprop.0+0x3ff>
  4017a6:	bf 5d 00 00 00       	mov    $0x5d,%edi
  4017ab:	e8 10 0d 00 00       	call   4024c0 <set_cpu_feature.constprop.0>
  4017b0:	e9 5a fe ff ff       	jmp    40160f <get_available_features.constprop.0+0x3ff>
  4017b5:	bf 51 00 00 00       	mov    $0x51,%edi
  4017ba:	e8 01 0d 00 00       	call   4024c0 <set_cpu_feature.constprop.0>
  4017bf:	e9 8c fb ff ff       	jmp    401350 <get_available_features.constprop.0+0x140>
  4017c4:	83 0d 91 38 00 00 02 	orl    $0x2,0x3891(%rip)        # 40505c <__cpu_model+0xc>
  4017cb:	e9 af fa ff ff       	jmp    40127f <get_available_features.constprop.0+0x6f>
  4017d0:	83 0d 85 38 00 00 01 	orl    $0x1,0x3885(%rip)        # 40505c <__cpu_model+0xc>
  4017d7:	e9 96 fa ff ff       	jmp    401272 <get_available_features.constprop.0+0x62>
  4017dc:	bf 33 00 00 00       	mov    $0x33,%edi
  4017e1:	e8 da 0c 00 00       	call   4024c0 <set_cpu_feature.constprop.0>
  4017e6:	e9 c8 fa ff ff       	jmp    4012b3 <get_available_features.constprop.0+0xa3>
  4017eb:	bf 2f 00 00 00       	mov    $0x2f,%edi
  4017f0:	e8 cb 0c 00 00       	call   4024c0 <set_cpu_feature.constprop.0>
  4017f5:	e9 ac fa ff ff       	jmp    4012a6 <get_available_features.constprop.0+0x96>
  4017fa:	83 0d 5b 38 00 00 10 	orl    $0x10,0x385b(%rip)        # 40505c <__cpu_model+0xc>
  401801:	e9 93 fa ff ff       	jmp    401299 <get_available_features.constprop.0+0x89>
  401806:	83 0d 4f 38 00 00 08 	orl    $0x8,0x384f(%rip)        # 40505c <__cpu_model+0xc>
  40180d:	e9 7a fa ff ff       	jmp    40128c <get_available_features.constprop.0+0x7c>
  401812:	bf 45 00 00 00       	mov    $0x45,%edi
  401817:	e8 a4 0c 00 00       	call   4024c0 <set_cpu_feature.constprop.0>
  40181c:	e9 22 fb ff ff       	jmp    401343 <get_available_features.constprop.0+0x133>
  401821:	81 0d 31 38 00 00 00 	orl    $0x40000,0x3831(%rip)        # 40505c <__cpu_model+0xc>
  401828:	00 04 00 
  40182b:	e9 06 fb ff ff       	jmp    401336 <get_available_features.constprop.0+0x126>
  401830:	bf 3a 00 00 00       	mov    $0x3a,%edi
  401835:	e8 86 0c 00 00       	call   4024c0 <set_cpu_feature.constprop.0>
  40183a:	e9 ee fa ff ff       	jmp    40132d <get_available_features.constprop.0+0x11d>
  40183f:	bf 2e 00 00 00       	mov    $0x2e,%edi
  401844:	e8 77 0c 00 00       	call   4024c0 <set_cpu_feature.constprop.0>
  401849:	e9 d2 fa ff ff       	jmp    401320 <get_available_features.constprop.0+0x110>
  40184e:	bf 3e 00 00 00       	mov    $0x3e,%edi
  401853:	e8 68 0c 00 00       	call   4024c0 <set_cpu_feature.constprop.0>
  401858:	e9 b6 fa ff ff       	jmp    401313 <get_available_features.constprop.0+0x103>
  40185d:	81 0d f5 37 00 00 00 	orl    $0x100,0x37f5(%rip)        # 40505c <__cpu_model+0xc>
  401864:	01 00 00 
  401867:	e9 9f fa ff ff       	jmp    40130b <get_available_features.constprop.0+0xfb>
  40186c:	81 0d e6 37 00 00 80 	orl    $0x80,0x37e6(%rip)        # 40505c <__cpu_model+0xc>
  401873:	00 00 00 
  401876:	e9 83 fa ff ff       	jmp    4012fe <get_available_features.constprop.0+0xee>
  40187b:	83 0d da 37 00 00 40 	orl    $0x40,0x37da(%rip)        # 40505c <__cpu_model+0xc>
  401882:	e9 6a fa ff ff       	jmp    4012f1 <get_available_features.constprop.0+0xe1>
  401887:	83 0d ce 37 00 00 20 	orl    $0x20,0x37ce(%rip)        # 40505c <__cpu_model+0xc>
  40188e:	e9 51 fa ff ff       	jmp    4012e4 <get_available_features.constprop.0+0xd4>
  401893:	81 0d bf 37 00 00 00 	orl    $0x80000,0x37bf(%rip)        # 40505c <__cpu_model+0xc>
  40189a:	00 08 00 
  40189d:	e9 38 fa ff ff       	jmp    4012da <get_available_features.constprop.0+0xca>
  4018a2:	81 0d b0 37 00 00 00 	orl    $0x40000,0x37b0(%rip)        # 40505c <__cpu_model+0xc>
  4018a9:	00 04 00 
  4018ac:	e9 1f fa ff ff       	jmp    4012d0 <get_available_features.constprop.0+0xc0>
  4018b1:	83 0d a4 37 00 00 04 	orl    $0x4,0x37a4(%rip)        # 40505c <__cpu_model+0xc>
  4018b8:	e9 03 fa ff ff       	jmp    4012c0 <get_available_features.constprop.0+0xb0>
  4018bd:	89 c2                	mov    %eax,%edx
  4018bf:	45 31 e4             	xor    %r12d,%r12d
  4018c2:	41 bb 01 00 00 00    	mov    $0x1,%r11d
  4018c8:	81 e2 e6 00 00 00    	and    $0xe6,%edx
  4018ce:	81 fa e6 00 00 00    	cmp    $0xe6,%edx
  4018d4:	41 0f 94 c4          	sete   %r12b
  4018d8:	e9 6c f9 ff ff       	jmp    401249 <get_available_features.constprop.0+0x39>
  4018dd:	bf 58 00 00 00       	mov    $0x58,%edi
  4018e2:	e8 d9 0b 00 00       	call   4024c0 <set_cpu_feature.constprop.0>
  4018e7:	e9 f6 fb ff ff       	jmp    4014e2 <get_available_features.constprop.0+0x2d2>
  4018ec:	bf 29 00 00 00       	mov    $0x29,%edi
  4018f1:	e8 ca 0b 00 00       	call   4024c0 <set_cpu_feature.constprop.0>
  4018f6:	85 db                	test   %ebx,%ebx
  4018f8:	0f 85 65 04 00 00    	jne    401d63 <get_available_features.constprop.0+0xb53>
  4018fe:	85 ed                	test   %ebp,%ebp
  401900:	0f 85 4e 04 00 00    	jne    401d54 <get_available_features.constprop.0+0xb44>
  401906:	bf 39 00 00 00       	mov    $0x39,%edi
  40190b:	e8 b0 0b 00 00       	call   4024c0 <set_cpu_feature.constprop.0>
  401910:	e9 e0 fd ff ff       	jmp    4016f5 <get_available_features.constprop.0+0x4e5>
  401915:	81 0d 3d 37 00 00 00 	orl    $0x20000,0x373d(%rip)        # 40505c <__cpu_model+0xc>
  40191c:	00 02 00 
  40191f:	e9 c5 fa ff ff       	jmp    4013e9 <get_available_features.constprop.0+0x1d9>
  401924:	bf 32 00 00 00       	mov    $0x32,%edi
  401929:	e8 92 0b 00 00       	call   4024c0 <set_cpu_feature.constprop.0>
  40192e:	e9 bf fa ff ff       	jmp    4013f2 <get_available_features.constprop.0+0x1e2>
  401933:	bf 2b 00 00 00       	mov    $0x2b,%edi
  401938:	e8 83 0b 00 00       	call   4024c0 <set_cpu_feature.constprop.0>
  40193d:	e9 e0 fa ff ff       	jmp    401422 <get_available_features.constprop.0+0x212>
  401942:	bf 2c 00 00 00       	mov    $0x2c,%edi
  401947:	e8 74 0b 00 00       	call   4024c0 <set_cpu_feature.constprop.0>
  40194c:	e9 dd fa ff ff       	jmp    40142e <get_available_features.constprop.0+0x21e>
  401951:	bf 41 00 00 00       	mov    $0x41,%edi
  401956:	e8 65 0b 00 00       	call   4024c0 <set_cpu_feature.constprop.0>
  40195b:	e9 d8 fa ff ff       	jmp    401438 <get_available_features.constprop.0+0x228>
  401960:	bf 40 00 00 00       	mov    $0x40,%edi
  401965:	e8 56 0b 00 00       	call   4024c0 <set_cpu_feature.constprop.0>
  40196a:	e9 d3 fa ff ff       	jmp    401442 <get_available_features.constprop.0+0x232>
  40196f:	bf 44 00 00 00       	mov    $0x44,%edi
  401974:	e8 47 0b 00 00       	call   4024c0 <set_cpu_feature.constprop.0>
  401979:	e9 d1 fa ff ff       	jmp    40144f <get_available_features.constprop.0+0x23f>
  40197e:	bf 20 00 00 00       	mov    $0x20,%edi
  401983:	e8 38 0b 00 00       	call   4024c0 <set_cpu_feature.constprop.0>
  401988:	e9 cf fa ff ff       	jmp    40145c <get_available_features.constprop.0+0x24c>
  40198d:	bf 3c 00 00 00       	mov    $0x3c,%edi
  401992:	e8 29 0b 00 00       	call   4024c0 <set_cpu_feature.constprop.0>
  401997:	e9 cd fa ff ff       	jmp    401469 <get_available_features.constprop.0+0x259>
  40199c:	bf 3b 00 00 00       	mov    $0x3b,%edi
  4019a1:	e8 1a 0b 00 00       	call   4024c0 <set_cpu_feature.constprop.0>
  4019a6:	e9 cb fa ff ff       	jmp    401476 <get_available_features.constprop.0+0x266>
  4019ab:	bf 30 00 00 00       	mov    $0x30,%edi
  4019b0:	e8 0b 0b 00 00       	call   4024c0 <set_cpu_feature.constprop.0>
  4019b5:	e9 c9 fa ff ff       	jmp    401483 <get_available_features.constprop.0+0x273>
  4019ba:	bf 2a 00 00 00       	mov    $0x2a,%edi
  4019bf:	e8 fc 0a 00 00       	call   4024c0 <set_cpu_feature.constprop.0>
  4019c4:	e9 c7 fa ff ff       	jmp    401490 <get_available_features.constprop.0+0x280>
  4019c9:	bf 4f 00 00 00       	mov    $0x4f,%edi
  4019ce:	e8 ed 0a 00 00       	call   4024c0 <set_cpu_feature.constprop.0>
  4019d3:	e9 c2 fa ff ff       	jmp    40149a <get_available_features.constprop.0+0x28a>
  4019d8:	bf 4b 00 00 00       	mov    $0x4b,%edi
  4019dd:	e8 de 0a 00 00       	call   4024c0 <set_cpu_feature.constprop.0>
  4019e2:	e9 bd fa ff ff       	jmp    4014a4 <get_available_features.constprop.0+0x294>
  4019e7:	bf 48 00 00 00       	mov    $0x48,%edi
  4019ec:	e8 cf 0a 00 00       	call   4024c0 <set_cpu_feature.constprop.0>
  4019f1:	e9 bb fa ff ff       	jmp    4014b1 <get_available_features.constprop.0+0x2a1>
  4019f6:	bf 4d 00 00 00       	mov    $0x4d,%edi
  4019fb:	e8 c0 0a 00 00       	call   4024c0 <set_cpu_feature.constprop.0>
  401a00:	e9 b9 fa ff ff       	jmp    4014be <get_available_features.constprop.0+0x2ae>
  401a05:	bf 3f 00 00 00       	mov    $0x3f,%edi
  401a0a:	e8 b1 0a 00 00       	call   4024c0 <set_cpu_feature.constprop.0>
  401a0f:	e9 b7 fa ff ff       	jmp    4014cb <get_available_features.constprop.0+0x2bb>
  401a14:	bf 35 00 00 00       	mov    $0x35,%edi
  401a19:	e8 a2 0a 00 00       	call   4024c0 <set_cpu_feature.constprop.0>
  401a1e:	e9 b5 fa ff ff       	jmp    4014d8 <get_available_features.constprop.0+0x2c8>
  401a23:	bf 47 00 00 00       	mov    $0x47,%edi
  401a28:	e8 93 0a 00 00       	call   4024c0 <set_cpu_feature.constprop.0>
  401a2d:	e9 86 f9 ff ff       	jmp    4013b8 <get_available_features.constprop.0+0x1a8>
  401a32:	81 0d 20 36 00 00 00 	orl    $0x200,0x3620(%rip)        # 40505c <__cpu_model+0xc>
  401a39:	02 00 00 
  401a3c:	e9 21 f9 ff ff       	jmp    401362 <get_available_features.constprop.0+0x152>
  401a41:	81 0d 11 36 00 00 00 	orl    $0x4000,0x3611(%rip)        # 40505c <__cpu_model+0xc>
  401a48:	40 00 00 
  401a4b:	e9 1f f9 ff ff       	jmp    40136f <get_available_features.constprop.0+0x15f>
  401a50:	bf 31 00 00 00       	mov    $0x31,%edi
  401a55:	e8 66 0a 00 00       	call   4024c0 <set_cpu_feature.constprop.0>
  401a5a:	e9 1d f9 ff ff       	jmp    40137c <get_available_features.constprop.0+0x16c>
  401a5f:	81 0d f3 35 00 00 00 	orl    $0x800,0x35f3(%rip)        # 40505c <__cpu_model+0xc>
  401a66:	08 00 00 
  401a69:	e9 51 fc ff ff       	jmp    4016bf <get_available_features.constprop.0+0x4af>
  401a6e:	bf 36 00 00 00       	mov    $0x36,%edi
  401a73:	e8 48 0a 00 00       	call   4024c0 <set_cpu_feature.constprop.0>
  401a78:	e9 4c fc ff ff       	jmp    4016c9 <get_available_features.constprop.0+0x4b9>
  401a7d:	bf 28 00 00 00       	mov    $0x28,%edi
  401a82:	e8 39 0a 00 00       	call   4024c0 <set_cpu_feature.constprop.0>
  401a87:	e9 7e f9 ff ff       	jmp    40140a <get_available_features.constprop.0+0x1fa>
  401a8c:	bf 4a 00 00 00       	mov    $0x4a,%edi
  401a91:	e8 2a 0a 00 00       	call   4024c0 <set_cpu_feature.constprop.0>
  401a96:	e9 7b f9 ff ff       	jmp    401416 <get_available_features.constprop.0+0x206>
  401a9b:	bf 46 00 00 00       	mov    $0x46,%edi
  401aa0:	e8 1b 0a 00 00       	call   4024c0 <set_cpu_feature.constprop.0>
  401aa5:	e9 54 f9 ff ff       	jmp    4013fe <get_available_features.constprop.0+0x1ee>
  401aaa:	81 0d a8 35 00 00 00 	orl    $0x10000,0x35a8(%rip)        # 40505c <__cpu_model+0xc>
  401ab1:	00 01 00 
  401ab4:	e9 e4 f8 ff ff       	jmp    40139d <get_available_features.constprop.0+0x18d>
  401ab9:	bf 49 00 00 00       	mov    $0x49,%edi
  401abe:	e8 fd 09 00 00       	call   4024c0 <set_cpu_feature.constprop.0>
  401ac3:	e9 de f8 ff ff       	jmp    4013a6 <get_available_features.constprop.0+0x196>
  401ac8:	bf 34 00 00 00       	mov    $0x34,%edi
  401acd:	e8 ee 09 00 00       	call   4024c0 <set_cpu_feature.constprop.0>
  401ad2:	e9 d8 f8 ff ff       	jmp    4013af <get_available_features.constprop.0+0x19f>
  401ad7:	bf 24 00 00 00       	mov    $0x24,%edi
  401adc:	e8 df 09 00 00       	call   4024c0 <set_cpu_feature.constprop.0>
  401ae1:	e9 29 fb ff ff       	jmp    40160f <get_available_features.constprop.0+0x3ff>
  401ae6:	58                   	pop    %rax
  401ae7:	bf 50 00 00 00       	mov    $0x50,%edi
  401aec:	5b                   	pop    %rbx
  401aed:	5d                   	pop    %rbp
  401aee:	41 5c                	pop    %r12
  401af0:	41 5d                	pop    %r13
  401af2:	e9 c9 09 00 00       	jmp    4024c0 <set_cpu_feature.constprop.0>
  401af7:	bf 2d 00 00 00       	mov    $0x2d,%edi
  401afc:	e8 bf 09 00 00       	call   4024c0 <set_cpu_feature.constprop.0>
  401b01:	e9 64 fc ff ff       	jmp    40176a <get_available_features.constprop.0+0x55a>
  401b06:	81 0d 4c 35 00 00 00 	orl    $0x2000,0x354c(%rip)        # 40505c <__cpu_model+0xc>
  401b0d:	20 00 00 
  401b10:	e9 3c fc ff ff       	jmp    401751 <get_available_features.constprop.0+0x541>
  401b15:	81 0d 3d 35 00 00 00 	orl    $0x1000,0x353d(%rip)        # 40505c <__cpu_model+0xc>
  401b1c:	10 00 00 
  401b1f:	e9 20 fc ff ff       	jmp    401744 <get_available_features.constprop.0+0x534>
  401b24:	bf 59 00 00 00       	mov    $0x59,%edi
  401b29:	89 44 24 04          	mov    %eax,0x4(%rsp)
  401b2d:	e8 8e 09 00 00       	call   4024c0 <set_cpu_feature.constprop.0>
  401b32:	45 85 db             	test   %r11d,%r11d
  401b35:	8b 44 24 04          	mov    0x4(%rsp),%eax
  401b39:	0f 85 5f fc ff ff    	jne    40179e <get_available_features.constprop.0+0x58e>
  401b3f:	e9 cb fa ff ff       	jmp    40160f <get_available_features.constprop.0+0x3ff>
  401b44:	bf 59 00 00 00       	mov    $0x59,%edi
  401b49:	e8 72 09 00 00       	call   4024c0 <set_cpu_feature.constprop.0>
  401b4e:	e9 a3 fa ff ff       	jmp    4015f6 <get_available_features.constprop.0+0x3e6>
  401b53:	bf 57 00 00 00       	mov    $0x57,%edi
  401b58:	e8 63 09 00 00       	call   4024c0 <set_cpu_feature.constprop.0>
  401b5d:	e9 ac f9 ff ff       	jmp    40150e <get_available_features.constprop.0+0x2fe>
  401b62:	bf 56 00 00 00       	mov    $0x56,%edi
  401b67:	e8 54 09 00 00       	call   4024c0 <set_cpu_feature.constprop.0>
  401b6c:	e9 90 f9 ff ff       	jmp    401501 <get_available_features.constprop.0+0x2f1>
  401b71:	bf 4e 00 00 00       	mov    $0x4e,%edi
  401b76:	e8 45 09 00 00       	call   4024c0 <set_cpu_feature.constprop.0>
  401b7b:	e9 60 f8 ff ff       	jmp    4013e0 <get_available_features.constprop.0+0x1d0>
  401b80:	bf 21 00 00 00       	mov    $0x21,%edi
  401b85:	e8 36 09 00 00       	call   4024c0 <set_cpu_feature.constprop.0>
  401b8a:	e9 44 f8 ff ff       	jmp    4013d3 <get_available_features.constprop.0+0x1c3>
  401b8f:	bf 5e 00 00 00       	mov    $0x5e,%edi
  401b94:	e8 27 09 00 00       	call   4024c0 <set_cpu_feature.constprop.0>
  401b99:	e9 3e fa ff ff       	jmp    4015dc <get_available_features.constprop.0+0x3cc>
  401b9e:	bf 25 00 00 00       	mov    $0x25,%edi
  401ba3:	e8 18 09 00 00       	call   4024c0 <set_cpu_feature.constprop.0>
  401ba8:	e9 22 fa ff ff       	jmp    4015cf <get_available_features.constprop.0+0x3bf>
  401bad:	81 0d a5 34 00 00 00 	orl    $0x20000000,0x34a5(%rip)        # 40505c <__cpu_model+0xc>
  401bb4:	00 00 20 
  401bb7:	e9 06 fa ff ff       	jmp    4015c2 <get_available_features.constprop.0+0x3b2>
  401bbc:	81 0d 96 34 00 00 00 	orl    $0x10000000,0x3496(%rip)        # 40505c <__cpu_model+0xc>
  401bc3:	00 00 10 
  401bc6:	e9 ed f9 ff ff       	jmp    4015b8 <get_available_features.constprop.0+0x3a8>
  401bcb:	81 0d 87 34 00 00 00 	orl    $0x40000000,0x3487(%rip)        # 40505c <__cpu_model+0xc>
  401bd2:	00 00 40 
  401bd5:	e9 d4 f9 ff ff       	jmp    4015ae <get_available_features.constprop.0+0x39e>
  401bda:	bf 23 00 00 00       	mov    $0x23,%edi
  401bdf:	e8 dc 08 00 00       	call   4024c0 <set_cpu_feature.constprop.0>
  401be4:	e9 b8 f9 ff ff       	jmp    4015a1 <get_available_features.constprop.0+0x391>
  401be9:	bf 22 00 00 00       	mov    $0x22,%edi
  401bee:	e8 cd 08 00 00       	call   4024c0 <set_cpu_feature.constprop.0>
  401bf3:	e9 9c f9 ff ff       	jmp    401594 <get_available_features.constprop.0+0x384>
  401bf8:	81 0d 5a 34 00 00 00 	orl    $0x80000000,0x345a(%rip)        # 40505c <__cpu_model+0xc>
  401bff:	00 00 80 
  401c02:	e9 80 f9 ff ff       	jmp    401587 <get_available_features.constprop.0+0x377>
  401c07:	bf 54 00 00 00       	mov    $0x54,%edi
  401c0c:	e8 af 08 00 00       	call   4024c0 <set_cpu_feature.constprop.0>
  401c11:	e9 2d fa ff ff       	jmp    401643 <get_available_features.constprop.0+0x433>
  401c16:	bf 52 00 00 00       	mov    $0x52,%edi
  401c1b:	e8 a0 08 00 00       	call   4024c0 <set_cpu_feature.constprop.0>
  401c20:	e9 14 fa ff ff       	jmp    401639 <get_available_features.constprop.0+0x429>
  401c25:	bf 53 00 00 00       	mov    $0x53,%edi
  401c2a:	e8 91 08 00 00       	call   4024c0 <set_cpu_feature.constprop.0>
  401c2f:	e9 fb f9 ff ff       	jmp    40162f <get_available_features.constprop.0+0x41f>
  401c34:	bf 55 00 00 00       	mov    $0x55,%edi
  401c39:	e8 82 08 00 00       	call   4024c0 <set_cpu_feature.constprop.0>
  401c3e:	e9 b1 f8 ff ff       	jmp    4014f4 <get_available_features.constprop.0+0x2e4>
  401c43:	81 0d 0f 34 00 00 00 	orl    $0x8000,0x340f(%rip)        # 40505c <__cpu_model+0xc>
  401c4a:	80 00 00 
  401c4d:	e9 d1 f8 ff ff       	jmp    401523 <get_available_features.constprop.0+0x313>
  401c52:	81 0d 00 34 00 00 00 	orl    $0x400,0x3400(%rip)        # 40505c <__cpu_model+0xc>
  401c59:	04 00 00 
  401c5c:	e9 65 f7 ff ff       	jmp    4013c6 <get_available_features.constprop.0+0x1b6>
  401c61:	81 0d f1 33 00 00 00 	orl    $0x4000000,0x33f1(%rip)        # 40505c <__cpu_model+0xc>
  401c68:	00 00 04 
  401c6b:	e9 0d f9 ff ff       	jmp    40157d <get_available_features.constprop.0+0x36d>
  401c70:	81 0d e2 33 00 00 00 	orl    $0x8000000,0x33e2(%rip)        # 40505c <__cpu_model+0xc>
  401c77:	00 00 08 
  401c7a:	e9 f4 f8 ff ff       	jmp    401573 <get_available_features.constprop.0+0x363>
  401c7f:	81 0d d3 33 00 00 00 	orl    $0x1000000,0x33d3(%rip)        # 40505c <__cpu_model+0xc>
  401c86:	00 00 01 
  401c89:	e9 d9 f8 ff ff       	jmp    401567 <get_available_features.constprop.0+0x357>
  401c8e:	81 0d c4 33 00 00 00 	orl    $0x2000000,0x33c4(%rip)        # 40505c <__cpu_model+0xc>
  401c95:	00 00 02 
  401c98:	e9 be f8 ff ff       	jmp    40155b <get_available_features.constprop.0+0x34b>
  401c9d:	81 0d b5 33 00 00 00 	orl    $0x800000,0x33b5(%rip)        # 40505c <__cpu_model+0xc>
  401ca4:	00 80 00 
  401ca7:	e9 a3 f8 ff ff       	jmp    40154f <get_available_features.constprop.0+0x33f>
  401cac:	81 0d a6 33 00 00 00 	orl    $0x400000,0x33a6(%rip)        # 40505c <__cpu_model+0xc>
  401cb3:	00 40 00 
  401cb6:	e9 88 f8 ff ff       	jmp    401543 <get_available_features.constprop.0+0x333>
  401cbb:	81 0d 97 33 00 00 00 	orl    $0x200000,0x3397(%rip)        # 40505c <__cpu_model+0xc>
  401cc2:	00 20 00 
  401cc5:	e9 6d f8 ff ff       	jmp    401537 <get_available_features.constprop.0+0x327>
  401cca:	bf 38 00 00 00       	mov    $0x38,%edi
  401ccf:	e8 ec 07 00 00       	call   4024c0 <set_cpu_feature.constprop.0>
  401cd4:	85 ed                	test   %ebp,%ebp
  401cd6:	0f 84 19 fa ff ff    	je     4016f5 <get_available_features.constprop.0+0x4e5>
  401cdc:	bf 4c 00 00 00       	mov    $0x4c,%edi
  401ce1:	e8 da 07 00 00       	call   4024c0 <set_cpu_feature.constprop.0>
  401ce6:	e9 0a fa ff ff       	jmp    4016f5 <get_available_features.constprop.0+0x4e5>
  401ceb:	81 0d 67 33 00 00 00 	orl    $0x100000,0x3367(%rip)        # 40505c <__cpu_model+0xc>
  401cf2:	00 10 00 
  401cf5:	e9 31 f8 ff ff       	jmp    40152b <get_available_features.constprop.0+0x31b>
  401cfa:	bf 27 00 00 00       	mov    $0x27,%edi
  401cff:	e8 bc 07 00 00       	call   4024c0 <set_cpu_feature.constprop.0>
  401d04:	e9 20 fa ff ff       	jmp    401729 <get_available_features.constprop.0+0x519>
  401d09:	bf 37 00 00 00       	mov    $0x37,%edi
  401d0e:	e8 ad 07 00 00       	call   4024c0 <set_cpu_feature.constprop.0>
  401d13:	e9 04 fa ff ff       	jmp    40171c <get_available_features.constprop.0+0x50c>
  401d18:	bf 3d 00 00 00       	mov    $0x3d,%edi
  401d1d:	e8 9e 07 00 00       	call   4024c0 <set_cpu_feature.constprop.0>
  401d22:	e9 e8 f9 ff ff       	jmp    40170f <get_available_features.constprop.0+0x4ff>
  401d27:	bf 42 00 00 00       	mov    $0x42,%edi
  401d2c:	e8 8f 07 00 00       	call   4024c0 <set_cpu_feature.constprop.0>
  401d31:	e9 cc f9 ff ff       	jmp    401702 <get_available_features.constprop.0+0x4f2>
  401d36:	bf 26 00 00 00       	mov    $0x26,%edi
  401d3b:	e8 80 07 00 00       	call   4024c0 <set_cpu_feature.constprop.0>
  401d40:	e9 ed f9 ff ff       	jmp    401732 <get_available_features.constprop.0+0x522>
  401d45:	bf 43 00 00 00       	mov    $0x43,%edi
  401d4a:	e8 71 07 00 00       	call   4024c0 <set_cpu_feature.constprop.0>
  401d4f:	e9 06 f9 ff ff       	jmp    40165a <get_available_features.constprop.0+0x44a>
  401d54:	bf 4c 00 00 00       	mov    $0x4c,%edi
  401d59:	e8 62 07 00 00       	call   4024c0 <set_cpu_feature.constprop.0>
  401d5e:	e9 a3 fb ff ff       	jmp    401906 <get_available_features.constprop.0+0x6f6>
  401d63:	bf 38 00 00 00       	mov    $0x38,%edi
  401d68:	e8 53 07 00 00       	call   4024c0 <set_cpu_feature.constprop.0>
  401d6d:	e9 8c fb ff ff       	jmp    4018fe <get_available_features.constprop.0+0x6ee>
  401d72:	bf 5d 00 00 00       	mov    $0x5d,%edi
  401d77:	e8 44 07 00 00       	call   4024c0 <set_cpu_feature.constprop.0>
  401d7c:	e9 84 f8 ff ff       	jmp    401605 <get_available_features.constprop.0+0x3f5>
  401d81:	bf 5c 00 00 00       	mov    $0x5c,%edi
  401d86:	e8 35 07 00 00       	call   4024c0 <set_cpu_feature.constprop.0>
  401d8b:	e9 ee f8 ff ff       	jmp    40167e <get_available_features.constprop.0+0x46e>
  401d90:	bf 5a 00 00 00       	mov    $0x5a,%edi
  401d95:	e8 26 07 00 00       	call   4024c0 <set_cpu_feature.constprop.0>
  401d9a:	e9 f1 f8 ff ff       	jmp    401690 <get_available_features.constprop.0+0x480>
  401d9f:	90                   	nop

0000000000401da0 <__cpu_indicator_init>:
  401da0:	f3 0f 1e fa          	endbr64 
  401da4:	8b 3d a6 32 00 00    	mov    0x32a6(%rip),%edi        # 405050 <__cpu_model>
  401daa:	85 ff                	test   %edi,%edi
  401dac:	0f 85 16 06 00 00    	jne    4023c8 <__cpu_indicator_init+0x628>
  401db2:	53                   	push   %rbx
  401db3:	31 f6                	xor    %esi,%esi
  401db5:	89 f0                	mov    %esi,%eax
  401db7:	48 83 ec 10          	sub    $0x10,%rsp
  401dbb:	0f a2                	cpuid  
  401dbd:	85 c0                	test   %eax,%eax
  401dbf:	0f 84 ad 00 00 00    	je     401e72 <__cpu_indicator_init+0xd2>
  401dc5:	89 f0                	mov    %esi,%eax
  401dc7:	0f a2                	cpuid  
  401dc9:	41 89 d8             	mov    %ebx,%r8d
  401dcc:	89 c7                	mov    %eax,%edi
  401dce:	85 c0                	test   %eax,%eax
  401dd0:	0f 8e 9c 00 00 00    	jle    401e72 <__cpu_indicator_init+0xd2>
  401dd6:	89 f0                	mov    %esi,%eax
  401dd8:	0f a2                	cpuid  
  401dda:	85 c0                	test   %eax,%eax
  401ddc:	0f 84 90 00 00 00    	je     401e72 <__cpu_indicator_init+0xd2>
  401de2:	b8 01 00 00 00       	mov    $0x1,%eax
  401de7:	0f a2                	cpuid  
  401de9:	89 c6                	mov    %eax,%esi
  401deb:	41 89 c1             	mov    %eax,%r9d
  401dee:	89 7c 24 08          	mov    %edi,0x8(%rsp)
  401df2:	89 c7                	mov    %eax,%edi
  401df4:	c1 ef 04             	shr    $0x4,%edi
  401df7:	c1 ee 08             	shr    $0x8,%esi
  401dfa:	41 c1 e9 0c          	shr    $0xc,%r9d
  401dfe:	c1 e8 14             	shr    $0x14,%eax
  401e01:	83 e7 0f             	and    $0xf,%edi
  401e04:	83 e6 0f             	and    $0xf,%esi
  401e07:	41 81 e1 f0 00 00 00 	and    $0xf0,%r9d
  401e0e:	0f b6 c0             	movzbl %al,%eax
  401e11:	41 81 f8 47 65 6e 75 	cmp    $0x756e6547,%r8d
  401e18:	74 6b                	je     401e85 <__cpu_indicator_init+0xe5>
  401e1a:	41 81 f8 41 75 74 68 	cmp    $0x68747541,%r8d
  401e21:	0f 84 f1 01 00 00    	je     402018 <__cpu_indicator_init+0x278>
  401e27:	41 81 f8 43 65 6e 74 	cmp    $0x746e6543,%r8d
  401e2e:	0f 84 5a 01 00 00    	je     401f8e <__cpu_indicator_init+0x1ee>
  401e34:	41 81 f8 43 79 72 69 	cmp    $0x69727943,%r8d
  401e3b:	0f 84 27 02 00 00    	je     402068 <__cpu_indicator_init+0x2c8>
  401e41:	31 c0                	xor    %eax,%eax
  401e43:	41 81 f8 47 65 6f 64 	cmp    $0x646f6547,%r8d
  401e4a:	0f 94 c0             	sete   %al
  401e4d:	8d 44 40 03          	lea    0x3(%rax,%rax,2),%eax
  401e51:	bf 37 00 00 00       	mov    $0x37,%edi
  401e56:	89 05 f4 31 00 00    	mov    %eax,0x31f4(%rip)        # 405050 <__cpu_model>
  401e5c:	e8 8f f3 ff ff       	call   4011f0 <has_cpu_feature.part.0.constprop.0>
  401e61:	85 c0                	test   %eax,%eax
  401e63:	74 09                	je     401e6e <__cpu_indicator_init+0xce>
  401e65:	f6 05 f0 31 00 00 10 	testb  $0x10,0x31f0(%rip)        # 40505c <__cpu_model+0xc>
  401e6c:	75 31                	jne    401e9f <__cpu_indicator_init+0xff>
  401e6e:	31 c0                	xor    %eax,%eax
  401e70:	eb 0d                	jmp    401e7f <__cpu_indicator_init+0xdf>
  401e72:	c7 05 d4 31 00 00 03 	movl   $0x3,0x31d4(%rip)        # 405050 <__cpu_model>
  401e79:	00 00 00 
  401e7c:	83 c8 ff             	or     $0xffffffff,%eax
  401e7f:	48 83 c4 10          	add    $0x10,%rsp
  401e83:	5b                   	pop    %rbx
  401e84:	c3                   	ret    
  401e85:	83 fe 0f             	cmp    $0xf,%esi
  401e88:	0f 84 0a 01 00 00    	je     401f98 <__cpu_indicator_init+0x1f8>
  401e8e:	83 fe 06             	cmp    $0x6,%esi
  401e91:	0f 85 07 01 00 00    	jne    401f9e <__cpu_indicator_init+0x1fe>
  401e97:	44 09 cf             	or     %r9d,%edi
  401e9a:	e9 ff 00 00 00       	jmp    401f9e <__cpu_indicator_init+0x1fe>
  401e9f:	bf 5f 00 00 00       	mov    $0x5f,%edi
  401ea4:	e8 17 06 00 00       	call   4024c0 <set_cpu_feature.constprop.0>
  401ea9:	bf 2e 00 00 00       	mov    $0x2e,%edi
  401eae:	e8 3d f3 ff ff       	call   4011f0 <has_cpu_feature.part.0.constprop.0>
  401eb3:	85 c0                	test   %eax,%eax
  401eb5:	74 b7                	je     401e6e <__cpu_indicator_init+0xce>
  401eb7:	8b 35 9f 31 00 00    	mov    0x319f(%rip),%esi        # 40505c <__cpu_model+0xc>
  401ebd:	40 f6 c6 04          	test   $0x4,%sil
  401ec1:	74 ab                	je     401e6e <__cpu_indicator_init+0xce>
  401ec3:	bf 36 00 00 00       	mov    $0x36,%edi
  401ec8:	e8 23 f3 ff ff       	call   4011f0 <has_cpu_feature.part.0.constprop.0>
  401ecd:	85 c0                	test   %eax,%eax
  401ecf:	74 9d                	je     401e6e <__cpu_indicator_init+0xce>
  401ed1:	81 e6 00 01 00 00    	and    $0x100,%esi
  401ed7:	74 95                	je     401e6e <__cpu_indicator_init+0xce>
  401ed9:	bf 60 00 00 00       	mov    $0x60,%edi
  401ede:	e8 dd 05 00 00       	call   4024c0 <set_cpu_feature.constprop.0>
  401ee3:	8b 35 73 31 00 00    	mov    0x3173(%rip),%esi        # 40505c <__cpu_model+0xc>
  401ee9:	89 f0                	mov    %esi,%eax
  401eeb:	25 00 04 01 00       	and    $0x10400,%eax
  401ef0:	3d 00 04 01 00       	cmp    $0x10400,%eax
  401ef5:	0f 85 73 ff ff ff    	jne    401e6e <__cpu_indicator_init+0xce>
  401efb:	f7 c6 00 00 02 00    	test   $0x20000,%esi
  401f01:	0f 84 67 ff ff ff    	je     401e6e <__cpu_indicator_init+0xce>
  401f07:	bf 31 00 00 00       	mov    $0x31,%edi
  401f0c:	e8 df f2 ff ff       	call   4011f0 <has_cpu_feature.part.0.constprop.0>
  401f11:	85 c0                	test   %eax,%eax
  401f13:	0f 84 55 ff ff ff    	je     401e6e <__cpu_indicator_init+0xce>
  401f19:	81 e6 00 40 00 00    	and    $0x4000,%esi
  401f1f:	0f 84 49 ff ff ff    	je     401e6e <__cpu_indicator_init+0xce>
  401f25:	bf 39 00 00 00       	mov    $0x39,%edi
  401f2a:	e8 c1 f2 ff ff       	call   4011f0 <has_cpu_feature.part.0.constprop.0>
  401f2f:	85 c0                	test   %eax,%eax
  401f31:	0f 84 37 ff ff ff    	je     401e6e <__cpu_indicator_init+0xce>
  401f37:	bf 3a 00 00 00       	mov    $0x3a,%edi
  401f3c:	e8 af f2 ff ff       	call   4011f0 <has_cpu_feature.part.0.constprop.0>
  401f41:	85 c0                	test   %eax,%eax
  401f43:	0f 84 25 ff ff ff    	je     401e6e <__cpu_indicator_init+0xce>
  401f49:	bf 61 00 00 00       	mov    $0x61,%edi
  401f4e:	e8 6d 05 00 00       	call   4024c0 <set_cpu_feature.constprop.0>
  401f53:	8b 05 03 31 00 00    	mov    0x3103(%rip),%eax        # 40505c <__cpu_model+0xc>
  401f59:	89 c2                	mov    %eax,%edx
  401f5b:	81 e2 00 00 a0 00    	and    $0xa00000,%edx
  401f61:	81 fa 00 00 a0 00    	cmp    $0xa00000,%edx
  401f67:	0f 85 01 ff ff ff    	jne    401e6e <__cpu_indicator_init+0xce>
  401f6d:	25 00 00 50 00       	and    $0x500000,%eax
  401f72:	3d 00 00 50 00       	cmp    $0x500000,%eax
  401f77:	0f 85 f1 fe ff ff    	jne    401e6e <__cpu_indicator_init+0xce>
  401f7d:	bf 62 00 00 00       	mov    $0x62,%edi
  401f82:	e8 39 05 00 00       	call   4024c0 <set_cpu_feature.constprop.0>
  401f87:	31 c0                	xor    %eax,%eax
  401f89:	e9 f1 fe ff ff       	jmp    401e7f <__cpu_indicator_init+0xdf>
  401f8e:	b8 04 00 00 00       	mov    $0x4,%eax
  401f93:	e9 b9 fe ff ff       	jmp    401e51 <__cpu_indicator_init+0xb1>
  401f98:	8d 70 0f             	lea    0xf(%rax),%esi
  401f9b:	44 09 cf             	or     %r9d,%edi
  401f9e:	89 34 24             	mov    %esi,(%rsp)
  401fa1:	89 ce                	mov    %ecx,%esi
  401fa3:	89 7c 24 04          	mov    %edi,0x4(%rsp)
  401fa7:	48 89 e7             	mov    %rsp,%rdi
  401faa:	e8 61 f2 ff ff       	call   401210 <get_available_features.constprop.0>
  401faf:	83 3c 24 06          	cmpl   $0x6,(%rsp)
  401fb3:	75 2a                	jne    401fdf <__cpu_indicator_init+0x23f>
  401fb5:	8b 4c 24 04          	mov    0x4(%rsp),%ecx
  401fb9:	83 f9 1f             	cmp    $0x1f,%ecx
  401fbc:	76 1c                	jbe    401fda <__cpu_indicator_init+0x23a>
  401fbe:	83 e9 25             	sub    $0x25,%ecx
  401fc1:	81 f9 9a 00 00 00    	cmp    $0x9a,%ecx
  401fc7:	77 16                	ja     401fdf <__cpu_indicator_init+0x23f>
  401fc9:	48 8d 15 b8 11 00 00 	lea    0x11b8(%rip),%rdx        # 403188 <__dso_handle+0x180>
  401fd0:	48 63 04 8a          	movslq (%rdx,%rcx,4),%rax
  401fd4:	48 01 d0             	add    %rdx,%rax
  401fd7:	3e ff e0             	notrack jmp *%rax
  401fda:	83 f9 0e             	cmp    $0xe,%ecx
  401fdd:	77 0a                	ja     401fe9 <__cpu_indicator_init+0x249>
  401fdf:	b8 01 00 00 00       	mov    $0x1,%eax
  401fe4:	e9 68 fe ff ff       	jmp    401e51 <__cpu_indicator_init+0xb1>
  401fe9:	b8 01 00 00 00       	mov    $0x1,%eax
  401fee:	48 d3 e0             	shl    %cl,%rax
  401ff1:	a9 00 80 80 20       	test   $0x20808000,%eax
  401ff6:	0f 85 fd 02 00 00    	jne    4022f9 <__cpu_indicator_init+0x559>
  401ffc:	a9 00 00 00 c4       	test   $0xc4000000,%eax
  402001:	0f 85 21 02 00 00    	jne    402228 <__cpu_indicator_init+0x488>
  402007:	83 f9 1c             	cmp    $0x1c,%ecx
  40200a:	75 d3                	jne    401fdf <__cpu_indicator_init+0x23f>
  40200c:	c7 05 3e 30 00 00 01 	movl   $0x1,0x303e(%rip)        # 405054 <__cpu_model+0x4>
  402013:	00 00 00 
  402016:	eb c7                	jmp    401fdf <__cpu_indicator_init+0x23f>
  402018:	83 fe 0f             	cmp    $0xf,%esi
  40201b:	75 06                	jne    402023 <__cpu_indicator_init+0x283>
  40201d:	8d 70 0f             	lea    0xf(%rax),%esi
  402020:	44 09 cf             	or     %r9d,%edi
  402023:	89 34 24             	mov    %esi,(%rsp)
  402026:	89 ce                	mov    %ecx,%esi
  402028:	89 7c 24 04          	mov    %edi,0x4(%rsp)
  40202c:	48 89 e7             	mov    %rsp,%rdi
  40202f:	e8 dc f1 ff ff       	call   401210 <get_available_features.constprop.0>
  402034:	8b 04 24             	mov    (%rsp),%eax
  402037:	8b 4c 24 04          	mov    0x4(%rsp),%ecx
  40203b:	83 e8 10             	sub    $0x10,%eax
  40203e:	83 f8 09             	cmp    $0x9,%eax
  402041:	77 1b                	ja     40205e <__cpu_indicator_init+0x2be>
  402043:	48 8d 15 aa 13 00 00 	lea    0x13aa(%rip),%rdx        # 4033f4 <__dso_handle+0x3ec>
  40204a:	48 63 04 82          	movslq (%rdx,%rax,4),%rax
  40204e:	48 01 d0             	add    %rdx,%rax
  402051:	3e ff e0             	notrack jmp *%rax
  402054:	c7 05 f6 2f 00 00 08 	movl   $0x8,0x2ff6(%rip)        # 405054 <__cpu_model+0x4>
  40205b:	00 00 00 
  40205e:	b8 02 00 00 00       	mov    $0x2,%eax
  402063:	e9 e9 fd ff ff       	jmp    401e51 <__cpu_indicator_init+0xb1>
  402068:	b8 05 00 00 00       	mov    $0x5,%eax
  40206d:	e9 df fd ff ff       	jmp    401e51 <__cpu_indicator_init+0xb1>
  402072:	c7 05 d8 2f 00 00 0f 	movl   $0xf,0x2fd8(%rip)        # 405054 <__cpu_model+0x4>
  402079:	00 00 00 
  40207c:	83 f9 0f             	cmp    $0xf,%ecx
  40207f:	0f 87 44 02 00 00    	ja     4022c9 <__cpu_indicator_init+0x529>
  402085:	c7 05 c9 2f 00 00 1a 	movl   $0x1a,0x2fc9(%rip)        # 405058 <__cpu_model+0x8>
  40208c:	00 00 00 
  40208f:	eb cd                	jmp    40205e <__cpu_indicator_init+0x2be>
  402091:	c7 05 b9 2f 00 00 0a 	movl   $0xa,0x2fb9(%rip)        # 405054 <__cpu_model+0x4>
  402098:	00 00 00 
  40209b:	83 f9 1f             	cmp    $0x1f,%ecx
  40209e:	0f 87 11 02 00 00    	ja     4022b5 <__cpu_indicator_init+0x515>
  4020a4:	c7 05 aa 2f 00 00 0b 	movl   $0xb,0x2faa(%rip)        # 405058 <__cpu_model+0x8>
  4020ab:	00 00 00 
  4020ae:	eb ae                	jmp    40205e <__cpu_indicator_init+0x2be>
  4020b0:	c7 05 9a 2f 00 00 09 	movl   $0x9,0x2f9a(%rip)        # 405054 <__cpu_model+0x4>
  4020b7:	00 00 00 
  4020ba:	eb a2                	jmp    40205e <__cpu_indicator_init+0x2be>
  4020bc:	c7 05 8e 2f 00 00 04 	movl   $0x4,0x2f8e(%rip)        # 405054 <__cpu_model+0x4>
  4020c3:	00 00 00 
  4020c6:	83 f9 04             	cmp    $0x4,%ecx
  4020c9:	0f 84 48 02 00 00    	je     402317 <__cpu_indicator_init+0x577>
  4020cf:	83 f9 08             	cmp    $0x8,%ecx
  4020d2:	0f 84 30 02 00 00    	je     402308 <__cpu_indicator_init+0x568>
  4020d8:	83 f9 02             	cmp    $0x2,%ecx
  4020db:	75 81                	jne    40205e <__cpu_indicator_init+0x2be>
  4020dd:	c7 05 71 2f 00 00 04 	movl   $0x4,0x2f71(%rip)        # 405058 <__cpu_model+0x8>
  4020e4:	00 00 00 
  4020e7:	e9 72 ff ff ff       	jmp    40205e <__cpu_indicator_init+0x2be>
  4020ec:	c7 05 5e 2f 00 00 05 	movl   $0x5,0x2f5e(%rip)        # 405054 <__cpu_model+0x4>
  4020f3:	00 00 00 
  4020f6:	83 f9 02             	cmp    $0x2,%ecx
  4020f9:	0f 84 a7 01 00 00    	je     4022a6 <__cpu_indicator_init+0x506>
  4020ff:	83 f9 0f             	cmp    $0xf,%ecx
  402102:	0f 87 d8 01 00 00    	ja     4022e0 <__cpu_indicator_init+0x540>
  402108:	c7 05 46 2f 00 00 07 	movl   $0x7,0x2f46(%rip)        # 405058 <__cpu_model+0x8>
  40210f:	00 00 00 
  402112:	e9 47 ff ff ff       	jmp    40205e <__cpu_indicator_init+0x2be>
  402117:	c7 05 33 2f 00 00 06 	movl   $0x6,0x2f33(%rip)        # 405054 <__cpu_model+0x4>
  40211e:	00 00 00 
  402121:	e9 b9 fe ff ff       	jmp    401fdf <__cpu_indicator_init+0x23f>
  402126:	48 8b 05 23 13 00 00 	mov    0x1323(%rip),%rax        # 403450 <__dso_handle+0x448>
  40212d:	48 89 05 20 2f 00 00 	mov    %rax,0x2f20(%rip)        # 405054 <__cpu_model+0x4>
  402134:	e9 a6 fe ff ff       	jmp    401fdf <__cpu_indicator_init+0x23f>
  402139:	48 8b 05 08 13 00 00 	mov    0x1308(%rip),%rax        # 403448 <__dso_handle+0x440>
  402140:	48 89 05 0d 2f 00 00 	mov    %rax,0x2f0d(%rip)        # 405054 <__cpu_model+0x4>
  402147:	e9 93 fe ff ff       	jmp    401fdf <__cpu_indicator_init+0x23f>
  40214c:	48 8b 05 ed 12 00 00 	mov    0x12ed(%rip),%rax        # 403440 <__dso_handle+0x438>
  402153:	48 89 05 fa 2e 00 00 	mov    %rax,0x2efa(%rip)        # 405054 <__cpu_model+0x4>
  40215a:	e9 80 fe ff ff       	jmp    401fdf <__cpu_indicator_init+0x23f>
  40215f:	48 8b 05 1a 13 00 00 	mov    0x131a(%rip),%rax        # 403480 <__dso_handle+0x478>
  402166:	48 89 05 e7 2e 00 00 	mov    %rax,0x2ee7(%rip)        # 405054 <__cpu_model+0x4>
  40216d:	e9 6d fe ff ff       	jmp    401fdf <__cpu_indicator_init+0x23f>
  402172:	c7 05 d8 2e 00 00 0e 	movl   $0xe,0x2ed8(%rip)        # 405054 <__cpu_model+0x4>
  402179:	00 00 00 
  40217c:	e9 5e fe ff ff       	jmp    401fdf <__cpu_indicator_init+0x23f>
  402181:	48 8b 05 e8 12 00 00 	mov    0x12e8(%rip),%rax        # 403470 <__dso_handle+0x468>
  402188:	48 89 05 c5 2e 00 00 	mov    %rax,0x2ec5(%rip)        # 405054 <__cpu_model+0x4>
  40218f:	e9 4b fe ff ff       	jmp    401fdf <__cpu_indicator_init+0x23f>
  402194:	48 8b 05 8d 12 00 00 	mov    0x128d(%rip),%rax        # 403428 <__dso_handle+0x420>
  40219b:	48 89 05 b2 2e 00 00 	mov    %rax,0x2eb2(%rip)        # 405054 <__cpu_model+0x4>
  4021a2:	e9 38 fe ff ff       	jmp    401fdf <__cpu_indicator_init+0x23f>
  4021a7:	48 8b 05 8a 12 00 00 	mov    0x128a(%rip),%rax        # 403438 <__dso_handle+0x430>
  4021ae:	48 89 05 9f 2e 00 00 	mov    %rax,0x2e9f(%rip)        # 405054 <__cpu_model+0x4>
  4021b5:	e9 25 fe ff ff       	jmp    401fdf <__cpu_indicator_init+0x23f>
  4021ba:	48 8b 05 97 12 00 00 	mov    0x1297(%rip),%rax        # 403458 <__dso_handle+0x450>
  4021c1:	48 89 05 8c 2e 00 00 	mov    %rax,0x2e8c(%rip)        # 405054 <__cpu_model+0x4>
  4021c8:	e9 12 fe ff ff       	jmp    401fdf <__cpu_indicator_init+0x23f>
  4021cd:	48 8b 05 a4 12 00 00 	mov    0x12a4(%rip),%rax        # 403478 <__dso_handle+0x470>
  4021d4:	48 89 05 79 2e 00 00 	mov    %rax,0x2e79(%rip)        # 405054 <__cpu_model+0x4>
  4021db:	e9 ff fd ff ff       	jmp    401fdf <__cpu_indicator_init+0x23f>
  4021e0:	48 8b 05 49 12 00 00 	mov    0x1249(%rip),%rax        # 403430 <__dso_handle+0x428>
  4021e7:	48 89 05 66 2e 00 00 	mov    %rax,0x2e66(%rip)        # 405054 <__cpu_model+0x4>
  4021ee:	e9 ec fd ff ff       	jmp    401fdf <__cpu_indicator_init+0x23f>
  4021f3:	48 8b 05 6e 12 00 00 	mov    0x126e(%rip),%rax        # 403468 <__dso_handle+0x460>
  4021fa:	48 89 05 53 2e 00 00 	mov    %rax,0x2e53(%rip)        # 405054 <__cpu_model+0x4>
  402201:	e9 d9 fd ff ff       	jmp    401fdf <__cpu_indicator_init+0x23f>
  402206:	c7 05 44 2e 00 00 0c 	movl   $0xc,0x2e44(%rip)        # 405054 <__cpu_model+0x4>
  40220d:	00 00 00 
  402210:	e9 ca fd ff ff       	jmp    401fdf <__cpu_indicator_init+0x23f>
  402215:	48 8b 05 44 12 00 00 	mov    0x1244(%rip),%rax        # 403460 <__dso_handle+0x458>
  40221c:	48 89 05 31 2e 00 00 	mov    %rax,0x2e31(%rip)        # 405054 <__cpu_model+0x4>
  402223:	e9 b7 fd ff ff       	jmp    401fdf <__cpu_indicator_init+0x23f>
  402228:	48 8b 05 f1 11 00 00 	mov    0x11f1(%rip),%rax        # 403420 <__dso_handle+0x418>
  40222f:	48 89 05 1e 2e 00 00 	mov    %rax,0x2e1e(%rip)        # 405054 <__cpu_model+0x4>
  402236:	e9 a4 fd ff ff       	jmp    401fdf <__cpu_indicator_init+0x23f>
  40223b:	c7 05 0f 2e 00 00 0d 	movl   $0xd,0x2e0f(%rip)        # 405054 <__cpu_model+0x4>
  402242:	00 00 00 
  402245:	e9 95 fd ff ff       	jmp    401fdf <__cpu_indicator_init+0x23f>
  40224a:	48 8b 05 37 12 00 00 	mov    0x1237(%rip),%rax        # 403488 <__dso_handle+0x480>
  402251:	48 89 05 fc 2d 00 00 	mov    %rax,0x2dfc(%rip)        # 405054 <__cpu_model+0x4>
  402258:	e9 82 fd ff ff       	jmp    401fdf <__cpu_indicator_init+0x23f>
  40225d:	c7 05 ed 2d 00 00 0b 	movl   $0xb,0x2ded(%rip)        # 405054 <__cpu_model+0x4>
  402264:	00 00 00 
  402267:	e9 73 fd ff ff       	jmp    401fdf <__cpu_indicator_init+0x23f>
  40226c:	c7 05 de 2d 00 00 07 	movl   $0x7,0x2dde(%rip)        # 405054 <__cpu_model+0x4>
  402273:	00 00 00 
  402276:	e9 64 fd ff ff       	jmp    401fdf <__cpu_indicator_init+0x23f>
  40227b:	c7 05 cf 2d 00 00 03 	movl   $0x3,0x2dcf(%rip)        # 405054 <__cpu_model+0x4>
  402282:	00 00 00 
  402285:	bf 24 00 00 00       	mov    $0x24,%edi
  40228a:	e8 61 ef ff ff       	call   4011f0 <has_cpu_feature.part.0.constprop.0>
  40228f:	85 c0                	test   %eax,%eax
  402291:	0f 84 b4 00 00 00    	je     40234b <__cpu_indicator_init+0x5ab>
  402297:	c7 05 b7 2d 00 00 17 	movl   $0x17,0x2db7(%rip)        # 405058 <__cpu_model+0x8>
  40229e:	00 00 00 
  4022a1:	e9 39 fd ff ff       	jmp    401fdf <__cpu_indicator_init+0x23f>
  4022a6:	c7 05 a8 2d 00 00 08 	movl   $0x8,0x2da8(%rip)        # 405058 <__cpu_model+0x8>
  4022ad:	00 00 00 
  4022b0:	e9 a9 fd ff ff       	jmp    40205e <__cpu_indicator_init+0x2be>
  4022b5:	83 f9 2f             	cmp    $0x2f,%ecx
  4022b8:	76 6c                	jbe    402326 <__cpu_indicator_init+0x586>
  4022ba:	c7 05 94 2d 00 00 14 	movl   $0x14,0x2d94(%rip)        # 405058 <__cpu_model+0x8>
  4022c1:	00 00 00 
  4022c4:	e9 95 fd ff ff       	jmp    40205e <__cpu_indicator_init+0x2be>
  4022c9:	bf 4e 00 00 00       	mov    $0x4e,%edi
  4022ce:	e8 1d ef ff ff       	call   4011f0 <has_cpu_feature.part.0.constprop.0>
  4022d3:	85 c0                	test   %eax,%eax
  4022d5:	0f 85 aa fd ff ff    	jne    402085 <__cpu_indicator_init+0x2e5>
  4022db:	e9 7e fd ff ff       	jmp    40205e <__cpu_indicator_init+0x2be>
  4022e0:	83 f9 2f             	cmp    $0x2f,%ecx
  4022e3:	76 c1                	jbe    4022a6 <__cpu_indicator_init+0x506>
  4022e5:	83 f9 4f             	cmp    $0x4f,%ecx
  4022e8:	77 7e                	ja     402368 <__cpu_indicator_init+0x5c8>
  4022ea:	c7 05 64 2d 00 00 09 	movl   $0x9,0x2d64(%rip)        # 405058 <__cpu_model+0x8>
  4022f1:	00 00 00 
  4022f4:	e9 65 fd ff ff       	jmp    40205e <__cpu_indicator_init+0x2be>
  4022f9:	c7 05 51 2d 00 00 02 	movl   $0x2,0x2d51(%rip)        # 405054 <__cpu_model+0x4>
  402300:	00 00 00 
  402303:	e9 d7 fc ff ff       	jmp    401fdf <__cpu_indicator_init+0x23f>
  402308:	c7 05 46 2d 00 00 06 	movl   $0x6,0x2d46(%rip)        # 405058 <__cpu_model+0x8>
  40230f:	00 00 00 
  402312:	e9 47 fd ff ff       	jmp    40205e <__cpu_indicator_init+0x2be>
  402317:	c7 05 37 2d 00 00 05 	movl   $0x5,0x2d37(%rip)        # 405058 <__cpu_model+0x8>
  40231e:	00 00 00 
  402321:	e9 38 fd ff ff       	jmp    40205e <__cpu_indicator_init+0x2be>
  402326:	bf 2c 00 00 00       	mov    $0x2c,%edi
  40232b:	e8 c0 ee ff ff       	call   4011f0 <has_cpu_feature.part.0.constprop.0>
  402330:	85 c0                	test   %eax,%eax
  402332:	75 86                	jne    4022ba <__cpu_indicator_init+0x51a>
  402334:	bf 2d 00 00 00       	mov    $0x2d,%edi
  402339:	e8 b2 ee ff ff       	call   4011f0 <has_cpu_feature.part.0.constprop.0>
  40233e:	85 c0                	test   %eax,%eax
  402340:	0f 85 5e fd ff ff    	jne    4020a4 <__cpu_indicator_init+0x304>
  402346:	e9 13 fd ff ff       	jmp    40205e <__cpu_indicator_init+0x2be>
  40234b:	bf 22 00 00 00       	mov    $0x22,%edi
  402350:	e8 9b ee ff ff       	call   4011f0 <has_cpu_feature.part.0.constprop.0>
  402355:	85 c0                	test   %eax,%eax
  402357:	74 31                	je     40238a <__cpu_indicator_init+0x5ea>
  402359:	c7 05 f5 2c 00 00 15 	movl   $0x15,0x2cf5(%rip)        # 405058 <__cpu_model+0x8>
  402360:	00 00 00 
  402363:	e9 77 fc ff ff       	jmp    401fdf <__cpu_indicator_init+0x23f>
  402368:	83 f9 7f             	cmp    $0x7f,%ecx
  40236b:	76 0e                	jbe    40237b <__cpu_indicator_init+0x5db>
  40236d:	8b 35 e9 2c 00 00    	mov    0x2ce9(%rip),%esi        # 40505c <__cpu_model+0xc>
  402373:	f7 c6 00 04 00 00    	test   $0x400,%esi
  402379:	74 1e                	je     402399 <__cpu_indicator_init+0x5f9>
  40237b:	c7 05 d3 2c 00 00 0a 	movl   $0xa,0x2cd3(%rip)        # 405058 <__cpu_model+0x8>
  402382:	00 00 00 
  402385:	e9 d4 fc ff ff       	jmp    40205e <__cpu_indicator_init+0x2be>
  40238a:	c7 05 c4 2c 00 00 10 	movl   $0x10,0x2cc4(%rip)        # 405058 <__cpu_model+0x8>
  402391:	00 00 00 
  402394:	e9 46 fc ff ff       	jmp    401fdf <__cpu_indicator_init+0x23f>
  402399:	bf 53 00 00 00       	mov    $0x53,%edi
  40239e:	e8 4d ee ff ff       	call   4011f0 <has_cpu_feature.part.0.constprop.0>
  4023a3:	85 c0                	test   %eax,%eax
  4023a5:	0f 85 3f ff ff ff    	jne    4022ea <__cpu_indicator_init+0x54a>
  4023ab:	f7 c6 00 00 01 00    	test   $0x10000,%esi
  4023b1:	0f 85 ef fe ff ff    	jne    4022a6 <__cpu_indicator_init+0x506>
  4023b7:	81 e6 00 20 00 00    	and    $0x2000,%esi
  4023bd:	0f 85 45 fd ff ff    	jne    402108 <__cpu_indicator_init+0x368>
  4023c3:	e9 96 fc ff ff       	jmp    40205e <__cpu_indicator_init+0x2be>
  4023c8:	31 c0                	xor    %eax,%eax
  4023ca:	c3                   	ret    

00000000004023cb <.annobin_abi_note.c.hot>:
  4023cb:	0f 1f 44 00 00       	nopl   0x0(%rax,%rax,1)

00000000004023d0 <_start>:
  4023d0:	f3 0f 1e fa          	endbr64 
  4023d4:	31 ed                	xor    %ebp,%ebp
  4023d6:	49 89 d1             	mov    %rdx,%r9
  4023d9:	5e                   	pop    %rsi
  4023da:	48 89 e2             	mov    %rsp,%rdx
  4023dd:	48 83 e4 f0          	and    $0xfffffffffffffff0,%rsp
  4023e1:	50                   	push   %rax
  4023e2:	54                   	push   %rsp
  4023e3:	45 31 c0             	xor    %r8d,%r8d
  4023e6:	31 c9                	xor    %ecx,%ecx
  4023e8:	48 c7 c7 50 10 40 00 	mov    $0x401050,%rdi
  4023ef:	ff 15 fb 2b 00 00    	call   *0x2bfb(%rip)        # 404ff0 <__libc_start_main@GLIBC_2.34>
  4023f5:	f4                   	hlt    

00000000004023f6 <.annobin_abi_note.c>:
  4023f6:	66 2e 0f 1f 84 00 00 	cs nopw 0x0(%rax,%rax,1)
  4023fd:	00 00 00 

0000000000402400 <_dl_relocate_static_pie>:
  402400:	f3 0f 1e fa          	endbr64 
  402404:	c3                   	ret    

0000000000402405 <.annobin__dl_relocate_static_pie.end>:
  402405:	66 2e 0f 1f 84 00 00 	cs nopw 0x0(%rax,%rax,1)
  40240c:	00 00 00 
  40240f:	90                   	nop

0000000000402410 <deregister_tm_clones>:
  402410:	b8 30 50 40 00       	mov    $0x405030,%eax
  402415:	48 3d 30 50 40 00    	cmp    $0x405030,%rax
  40241b:	74 13                	je     402430 <deregister_tm_clones+0x20>
  40241d:	b8 00 00 00 00       	mov    $0x0,%eax
  402422:	48 85 c0             	test   %rax,%rax
  402425:	74 09                	je     402430 <deregister_tm_clones+0x20>
  402427:	bf 30 50 40 00       	mov    $0x405030,%edi
  40242c:	ff e0                	jmp    *%rax
  40242e:	66 90                	xchg   %ax,%ax
  402430:	c3                   	ret    
  402431:	66 66 2e 0f 1f 84 00 	data16 cs nopw 0x0(%rax,%rax,1)
  402438:	00 00 00 00 
  40243c:	0f 1f 40 00          	nopl   0x0(%rax)

0000000000402440 <register_tm_clones>:
  402440:	be 30 50 40 00       	mov    $0x405030,%esi
  402445:	48 81 ee 30 50 40 00 	sub    $0x405030,%rsi
  40244c:	48 89 f0             	mov    %rsi,%rax
  40244f:	48 c1 ee 3f          	shr    $0x3f,%rsi
  402453:	48 c1 f8 03          	sar    $0x3,%rax
  402457:	48 01 c6             	add    %rax,%rsi
  40245a:	48 d1 fe             	sar    %rsi
  40245d:	74 11                	je     402470 <register_tm_clones+0x30>
  40245f:	b8 00 00 00 00       	mov    $0x0,%eax
  402464:	48 85 c0             	test   %rax,%rax
  402467:	74 07                	je     402470 <register_tm_clones+0x30>
  402469:	bf 30 50 40 00       	mov    $0x405030,%edi
  40246e:	ff e0                	jmp    *%rax
  402470:	c3                   	ret    
  402471:	66 66 2e 0f 1f 84 00 	data16 cs nopw 0x0(%rax,%rax,1)
  402478:	00 00 00 00 
  40247c:	0f 1f 40 00          	nopl   0x0(%rax)

0000000000402480 <__do_global_dtors_aux>:
  402480:	f3 0f 1e fa          	endbr64 
  402484:	80 3d a5 2b 00 00 00 	cmpb   $0x0,0x2ba5(%rip)        # 405030 <__TMC_END__>
  40248b:	75 13                	jne    4024a0 <__do_global_dtors_aux+0x20>
  40248d:	55                   	push   %rbp
  40248e:	48 89 e5             	mov    %rsp,%rbp
  402491:	e8 7a ff ff ff       	call   402410 <deregister_tm_clones>
  402496:	c6 05 93 2b 00 00 01 	movb   $0x1,0x2b93(%rip)        # 405030 <__TMC_END__>
  40249d:	5d                   	pop    %rbp
  40249e:	c3                   	ret    
  40249f:	90                   	nop
  4024a0:	c3                   	ret    
  4024a1:	66 66 2e 0f 1f 84 00 	data16 cs nopw 0x0(%rax,%rax,1)
  4024a8:	00 00 00 00 
  4024ac:	0f 1f 40 00          	nopl   0x0(%rax)

00000000004024b0 <frame_dummy>:
  4024b0:	f3 0f 1e fa          	endbr64 
  4024b4:	eb 8a                	jmp    402440 <register_tm_clones>
  4024b6:	66 2e 0f 1f 84 00 00 	cs nopw 0x0(%rax,%rax,1)
  4024bd:	00 00 00 

00000000004024c0 <set_cpu_feature.constprop.0>:
  4024c0:	89 f9                	mov    %edi,%ecx
  4024c2:	31 c0                	xor    %eax,%eax
  4024c4:	83 ff 3f             	cmp    $0x3f,%edi
  4024c7:	76 08                	jbe    4024d1 <set_cpu_feature.constprop.0+0x11>
  4024c9:	83 ff 60             	cmp    $0x60,%edi
  4024cc:	19 c0                	sbb    %eax,%eax
  4024ce:	83 c0 02             	add    $0x2,%eax
  4024d1:	48 8d 35 68 2b 00 00 	lea    0x2b68(%rip),%rsi        # 405040 <__cpu_features2>
  4024d8:	ba 01 00 00 00       	mov    $0x1,%edx
  4024dd:	d3 e2                	shl    %cl,%edx
  4024df:	09 14 86             	or     %edx,(%rsi,%rax,4)
  4024e2:	c3                   	ret    

Disassembly of section .fini:

00000000004024e4 <_fini>:
  4024e4:	f3 0f 1e fa          	endbr64 
  4024e8:	48 83 ec 08          	sub    $0x8,%rsp
  4024ec:	48 83 c4 08          	add    $0x8,%rsp
  4024f0:	c3                   	ret    
